L251 LINKER/LOCATER V4.66.93.0                                                          05/23/2023  13:55:03  PAGE 1


L251 LINKER/LOCATER V4.66.93.0, INVOKED BY:
D:\KEILMDK\C251\BIN\L251.EXE .\obj\CalcDoseRate.obj, .\obj\CMD.obj, .\obj\flash.obj, .\obj\i2c.obj, .\obj\mcp4725.obj, .
>> \obj\Sensor.obj, .\obj\system.obj, .\obj\uart.obj, .\obj\BatVoltage.obj, .\obj\CalcCPS.obj, .\obj\DoseRate.obj, .\obj
>> \CRC.obj, .\obj\Queue.obj, .\obj\main.obj TO .\obj\PileCore PRINT (.\obj\PileCore.map) CASE REMOVEUNUSED CLASSES (EDA
>> TA (0X0-0XFFF), HDATA (0X0-0XFFF))


CPU MODE:     251 SOURCE MODE
INTR FRAME:   2 BYTES SAVED ON INTERRUPT
MEMORY MODEL: XSMALL WITH FLOATING POINT ARITHMETIC


INPUT MODULES INCLUDED:
  .\obj\CalcDoseRate.obj (CalcDoseRate)
         COMMENT TYPE 0: C251 V5.60.0
  .\obj\CMD.obj (CMD)
         COMMENT TYPE 0: C251 V5.60.0
  .\obj\flash.obj (flash)
         COMMENT TYPE 0: C251 V5.60.0
  .\obj\i2c.obj (i2c)
         COMMENT TYPE 0: C251 V5.60.0
  .\obj\mcp4725.obj (mcp4725)
         COMMENT TYPE 0: C251 V5.60.0
  .\obj\Sensor.obj (Sensor)
         COMMENT TYPE 0: C251 V5.60.0
  .\obj\system.obj (system)
         COMMENT TYPE 0: C251 V5.60.0
  .\obj\uart.obj (uart)
         COMMENT TYPE 0: C251 V5.60.0
  .\obj\BatVoltage.obj (BatVoltage)
         COMMENT TYPE 0: C251 V5.60.0
  .\obj\CalcCPS.obj (CalcCPS)
         COMMENT TYPE 0: C251 V5.60.0
  .\obj\DoseRate.obj (DoseRate)
         COMMENT TYPE 0: C251 V5.60.0
  .\obj\CRC.obj (CRC)
         COMMENT TYPE 0: C251 V5.60.0
  .\obj\Queue.obj (Queue)
         COMMENT TYPE 0: C251 V5.60.0
  .\obj\main.obj (main)
         COMMENT TYPE 0: C251 V5.60.0
  D:\KEILMDK\C251\LIB\C2SFPXS.LIB (?C?FPADD)
         COMMENT TYPE 0: A251 V4.69.6.0
  D:\KEILMDK\C251\LIB\C2SFPXS.LIB (?C?FPMUL)
         COMMENT TYPE 0: A251 V4.69.6.0
  D:\KEILMDK\C251\LIB\C2SFPXS.LIB (?C?FPDIV)
         COMMENT TYPE 0: A251 V4.69.6.0
  D:\KEILMDK\C251\LIB\C2SFPXS.LIB (?C?FPCMP)
         COMMENT TYPE 0: A251 V4.69.6.0
  D:\KEILMDK\C251\LIB\C2SFPXS.LIB (?C?FCAST)
         COMMENT TYPE 0: A251 V4.69.6.0
  D:\KEILMDK\C251\LIB\C2SFPXS.LIB (?C?CASTF)
         COMMENT TYPE 0: A251 V4.69.6.0
  D:\KEILMDK\C251\LIB\C2SFPXS.LIB (EXP?_)
         COMMENT TYPE 0: A251 V4.69.6.0
  D:\KEILMDK\C251\LIB\C2SFPXS.LIB (SQRT?_)
         COMMENT TYPE 0: A251 V4.69.6.0
  D:\KEILMDK\C251\LIB\C2SFPXS.LIB (?C?FPGETOPN)
         COMMENT TYPE 0: A251 V4.69.6.0
  D:\KEILMDK\C251\LIB\C2SFPXS.LIB (?C?FPSERIES)
         COMMENT TYPE 0: A251 V4.69.6.0
  D:\KEILMDK\C251\LIB\C2SXS.LIB (?C_START)
         COMMENT TYPE 0: A251 V4.69.6.0
  D:\KEILMDK\C251\LIB\C2SXS.LIB (?C?INITEDATA)
         COMMENT TYPE 0: A251 V4.69.6.0
  D:\KEILMDK\C251\LIB\C2SXS.LIB (?C?ULDIV)
L251 LINKER/LOCATER V4.66.93.0                                                        05/23/2023  13:55:03  PAGE 2


         COMMENT TYPE 0: A251 V4.69.6.0
  D:\KEILMDK\C251\LIB\C2SXS.LIB (?C?BMOVENP)
         COMMENT TYPE 0: A251 V4.69.6.0
  D:\KEILMDK\C251\LIB\C2SXS.LIB (memcpy)
         COMMENT TYPE 0: C251 V5.58.7
  D:\KEILMDK\C251\LIB\C2SXS.LIB (memset)
         COMMENT TYPE 0: C251 V5.58.7
  D:\KEILMDK\C251\LIB\C2SXS.LIB (?C?INITEDATA_END)
         COMMENT TYPE 0: A251 V4.69.6.0


ACTIVE MEMORY CLASSES OF MODULE:  .\obj\PileCore (CalcDoseRate)

BASE        START       END         USED      MEMORY CLASS
==========================================================
000000H     000000H     000FFFH     0007EBH   EDATA
000000H     000000H     000FFFH               HDATA
FF0000H     FF0000H     FFFFFFH     002561H   CODE
000000H     FF0000H     FFFFFFH     00041EH   HCONST
000020H.0   000020H.0   00002FH.7   000000H.2 BIT
000000H     000000H     00007FH     000008H   DATA


MEMORY MAP OF MODULE:  .\obj\PileCore (CalcDoseRate)


START     STOP      LENGTH    ALIGN  RELOC    MEMORY CLASS   SEGMENT NAME
=========================================================================
000000H   000007H   000008H   ---    AT..     DATA           "REG BANK 0"
000008H   00001BH   000014H   BYTE   UNIT     EDATA          ?ED?CPSTOUSV_H?CALCDOSERATE
00001CH   00001FH   000004H   BYTE   UNIT     EDATA          ?ED?GETPARA?CMD
000020H.0 000020H.1 000000H.2 BIT    UNIT     BIT            ?BI?UART
000020H.2 000020H   000000H.6 ---    ---      **GAP**
000021H   0001B8H   000198H   BYTE   UNIT     EDATA          ?ED?UART
0001B9H   0002C8H   000110H   BYTE   UNIT     EDATA          ?ED?DOSERATE
0002C9H   0003ADH   0000E5H   BYTE   UNIT     EDATA          ?ED?MAIN
0003AEH   00041DH   000070H   BYTE   UNIT     EDATA          ?ED?CMD
00041EH   00046BH   00004EH   BYTE   UNIT     EDATA          ?ED?ACK_CMD_W?CMD
00046CH   0004B5H   00004AH   BYTE   UNIT     EDATA          ?ED?ACK_CMD_R?CMD
0004B6H   0004F6H   000041H   BYTE   UNIT     EDATA          ?ED?ACK_CMD_V?CMD
0004F7H   000537H   000041H   BYTE   UNIT     EDATA          ?ED?ACK_CMD_B?CMD
000538H   000578H   000041H   BYTE   UNIT     EDATA          ?ED?SENSOR
000579H   0005B5H   00003DH   BYTE   UNIT     EDATA          ?ED?ACK_CMD_F?CMD
0005B6H   0005D1H   00001CH   BYTE   UNIT     EDATA          ?ED?DEVICEGETBATVAL?BATVOLTAGE
0005D2H   0005EDH   00001CH   BYTE   UNIT     EDATA          ?ED?CALCLOW?CALCCPS
0005EEH   000609H   00001CH   BYTE   UNIT     EDATA          ?ED?CALCHIGH?CALCCPS
00060AH   00061BH   000012H   BYTE   UNIT     EDATA          ?ED?EEPROM_WRITE?FLASH
00061CH   000629H   00000EH   BYTE   UNIT     EDATA          ?ED?SYSTEM
00062AH   000636H   00000DH   BYTE   UNIT     EDATA          ?ED?FLOATTOSMALL?CMD
000637H   000643H   00000DH   BYTE   UNIT     EDATA          ?ED?DWORDTOSMALL?CMD
000644H   000650H   00000DH   BYTE   UNIT     EDATA          ?ED?MCP4725_OUTVOL?MCP4725
000651H   00065CH   00000CH   BYTE   UNIT     EDATA          ?ED?DATAPRO?CMD
00065DH   000668H   00000CH   BYTE   UNIT     EDATA          ?ED?CRC16?CRC
000669H   000672H   00000AH   BYTE   UNIT     EDATA          ?ED?CHECKSUM?CMD
000673H   00067CH   00000AH   BYTE   UNIT     EDATA          ?ED?EEPROM_READ?FLASH
00067DH   000685H   000009H   BYTE   UNIT     EDATA          ?ED?SENDDATA?CMD
000686H   00068EH   000009H   BYTE   UNIT     EDATA          ?ED?ARRANGE?BATVOLTAGE
00068FH   000696H   000008H   BYTE   UNIT     EDATA          ?ED?CALCCPS
000697H   00069DH   000007H   BYTE   UNIT     EDATA          ?ED?WORDTOSMALL?CMD
00069EH   0006A3H   000006H   BYTE   UNIT     EDATA          ?ED?UARTBLE_SEND?UART
0006A4H   0006A9H   000006H   BYTE   UNIT     EDATA          ?ED?UART485_SEND?UART
0006AAH   0006AFH   000006H   BYTE   UNIT     EDATA          ?ED?GETHIS?DOSERATE
0006B0H   0006B4H   000005H   BYTE   UNIT     EDATA          ?ED?PUSHCPS?DOSERATE
0006B5H   0006B9H   000005H   BYTE   UNIT     EDATA          ?ED?COUNTERPH?DOSERATE
0006BAH   0006BDH   000004H   BYTE   UNIT     EDATA          ?ED?ACK_CMD_C?CMD
L251 LINKER/LOCATER V4.66.93.0                                                        05/23/2023  13:55:03  PAGE 3


0006BEH   0006C1H   000004H   BYTE   UNIT     EDATA          ?ED?ACK_CMD_BAT?CMD
0006C2H   0006C5H   000004H   BYTE   UNIT     EDATA          ?ED?EEPROM_SECTORERASE?FLASH
0006C6H   0006C9H   000004H   BYTE   UNIT     EDATA          ?ED?CALCALARMSTATE?SENSOR
0006CAH   0006CDH   000004H   BYTE   UNIT     EDATA          ?ED?GETCOUNTER?SYSTEM
0006CEH   0006D1H   000004H   BYTE   UNIT     EDATA          ?ED?GETHIGHTCOUNTER?SYSTEM
0006D2H   0006D5H   000004H   BYTE   UNIT     EDATA          ?ED?DEVICEGETBATALARM?BATVOLTAGE
0006D6H   0006D9H   000004H   BYTE   UNIT     EDATA          ?ED?ADDCOUNTER?DOSERATE
0006DAH   0006DDH   000004H   BYTE   UNIT     EDATA          ?ED?CPSFILTER?DOSERATE
0006DEH   0006E1H   000004H   BYTE   UNIT     EDATA          ?ED?DELAY_MS?MAIN
0006E2H   0006E3H   000002H   BYTE   UNIT     EDATA          ?ED?ACK_CMD_E?CMD
0006E4H   0006E5H   000002H   BYTE   UNIT     EDATA          ?ED?ACK_CMD_SELFCHECK?CMD
0006E6H   0006E7H   000002H   BYTE   UNIT     EDATA          ?ED?ACK_CMD_SENSORONOFF?CMD
0006E8H   0006E9H   000002H   BYTE   UNIT     EDATA          ?ED?CHECKAPP?FLASH
0006EAH   0006EBH   000002H   BYTE   UNIT     EDATA          ?ED?RESVCPS?DOSERATE
0006ECH   0006EDH   000002H   BYTE   UNIT     EDATA          ?ED?TIMERTASK?MAIN
0006EEH   0006EEH   000001H   BYTE   UNIT     EDATA          ?ED?ACK_CMD_GMSW?CMD
0006EFH   0006EFH   000001H   BYTE   UNIT     EDATA          ?ED?I2C
0006F0H   0006F0H   000001H   BYTE   UNIT     EDATA          ?ED?PUTCHAR?UART
0006F1H   0006F1H   000001H   BYTE   UNIT     EDATA          ?ED?BATVOLTAGE
0006F2H   0006F2H   000001H   BYTE   UNIT     EDATA          ?ED?INITARR?DOSERATE
0006F3H   0006F3H   000001H   BYTE   UNIT     EDATA          ?ED?DELAY_US?MAIN
0006F4H   0007F3H   000100H   BYTE   UNIT     EDATA          ?STACK
0007F4H   FEFFFFH   FEF80CH   ---    ---      **GAP**
FF0000H   FF0002H   000003H   ---    OFFS..   CODE           ?CO?start251?4
FF0003H   FF000AH   000008H   BYTE   INSEG    CODE           ?PR?ADDCOUNTER?DOSERATE
FF000BH   FF000DH   000003H   ---    OFFS..   CODE           ?PR?IV?1
FF000EH   FF0020H   000013H   BYTE   INSEG    CODE           ?PR?GETHIGHTCOUNTER?SYSTEM
FF0021H   FF0022H   000002H   ---    ---      **GAP**
FF0023H   FF0025H   000003H   ---    OFFS..   CODE           ?PR?IV?4
FF0026H   FF0088H   000063H   BYTE   INSEG    CODE           ?PR?ACK_CMD_V?CMD
FF0089H   FF008AH   000002H   ---    ---      **GAP**
FF008BH   FF008DH   000003H   ---    OFFS..   CODE           ?PR?IV?17
FF008EH   FF009AH   00000DH   BYTE   INSEG    CODE           ?PR?SENSORINIT?SENSOR
FF009BH   FF009DH   000003H   ---    OFFS..   CODE           ?PR?IV?19
FF009EH   FF00A2H   000005H   BYTE   INSEG    CODE           ?PR?GET_HIGH_COUNTER?SENSOR
FF00A3H   FF00A5H   000003H   ---    OFFS..   CODE           ?PR?IV?20
FF00A6H   FF012FH   00008AH   BYTE   INSEG    CODE           ?PR?CRC16?CRC
FF0130H   FF0132H   000003H   ---    ---      **GAP**
FF0133H   FF0135H   000003H   ---    OFFS..   CODE           ?PR?IV?38
FF0136H   FF05F6H   0004C1H   BYTE   UNIT     CODE           ?C?LIB_CODE
FF05F7H   FF0945H   00034FH   BYTE   INSEG    CODE           ?PR?MCP4725_OUTVOL?MCP4725
FF0946H   FF0C04H   0002BFH   BYTE   INSEG    CODE           ?PR?DATAPRO?CMD
FF0C05H   FF0E29H   000225H   BYTE   INSEG    CODE           ?PR?CAPTURESENSORPLUSECOUNTER?SENSOR
FF0E2AH   FF0FAAH   000181H   BYTE   INSEG    CODE           ?PR?CALCALARMSTATE?SENSOR
FF0FABH   FF10BFH   000115H   BYTE   INSEG    CODE           ?PR?EEPROM_WRITE?FLASH
FF10C0H   FF11D3H   000114H   BYTE   INSEG    CODE           ?PR?ARRANGE?BATVOLTAGE
FF11D4H   FF12E5H   000112H   BYTE   INSEG    CODE           ?PR?CPSFILTER?DOSERATE
FF12E6H   FF13F6H   000111H   BYTE   INSEG    CODE           ?PR?COUNTERPH?DOSERATE
FF13F7H   FF14E8H   0000F2H   BYTE   INSEG    CODE           ?PR?ACK_CMD_W?CMD
FF14E9H   FF15C9H   0000E1H   BYTE   INSEG    CODE           ?PR?ACK_CMD_R?CMD
FF15CAH   FF1697H   0000CEH   BYTE   INSEG    CODE           ?PR?TIMERTASK?MAIN
FF1698H   FF175EH   0000C7H   BYTE   INSEG    CODE           ?PR?DEVICEGETBATVAL?BATVOLTAGE
FF175FH   FF1824H   0000C6H   BYTE   INSEG    CODE           ?PR?DEVICEGETBATALARM?BATVOLTAGE
FF1825H   FF18E8H   0000C4H   BYTE   INSEG    CODE           ?PR?INITPARAM?MAIN
FF18E9H   FF1999H   0000B1H   BYTE   INSEG    CODE           ?PR?MAIN?MAIN
FF199AH   FF1A36H   00009DH   BYTE   INSEG    CODE           ?PR?SENDDATA?CMD
FF1A37H   FF1ACBH   000095H   BYTE   INSEG    CODE           ?PR?BTINIT?MAIN
FF1ACCH   FF1B5AH   00008FH   BYTE   INSEG    CODE           ?PR?PUSHCPS?DOSERATE
FF1B5BH   FF1BC6H   00006CH   BYTE   INSEG    CODE           ?PR?EEPROM_READ?FLASH
FF1BC7H   FF1C28H   000062H   BYTE   INSEG    CODE           ?PR?UART1_ISR?UART
FF1C29H   FF1C87H   00005FH   BYTE   INSEG    CODE           ?PR?FLOATTOSMALL?CMD
FF1C88H   FF1CE2H   00005BH   BYTE   INSEG    CODE           ?PR?CALCLOW?CALCCPS
FF1CE3H   FF1D3DH   00005BH   BYTE   INSEG    CODE           ?PR?CALCHIGH?CALCCPS
FF1D3EH   FF1D97H   00005AH   BYTE   INSEG    CODE           ?PR?INITARR?DOSERATE
FF1D98H   FF1DE7H   000050H   BYTE   INSEG    CODE           ?PR?ACK_CMD_B?CMD
L251 LINKER/LOCATER V4.66.93.0                                                        05/23/2023  13:55:03  PAGE 4


FF1DE8H   FF1E36H   00004FH   BYTE   INSEG    CODE           ?PR?UART3_ISR?UART
FF1E37H   FF1E82H   00004CH   BYTE   INSEG    CODE           ?PR?CHECKSUM?CMD
FF1E83H   FF1ECCH   00004AH   BYTE   INSEG    CODE           ?PR?COMMON_PORT1_ISR?SENSOR
FF1ECDH   FF1F13H   000047H   BYTE   INSEG    CODE           ?PR?WORDTOSMALL?CMD
FF1F14H   FF1F5AH   000047H   BYTE   INSEG    CODE           ?PR?DELAY_MS?MAIN
FF1F5BH   FF1FA0H   000046H   BYTE   INSEG    CODE           ?PR?UART485_SEND?UART
FF1FA1H   FF1FE3H   000043H   BYTE   INSEG    CODE           ?PR?TIMER0_ISR?SYSTEM
FF1FE4H   FF2025H   000042H   BYTE   INSEG    CODE           ?PR?UART1_INIT?UART
FF2026H   FF2066H   000041H   BYTE   INSEG    CODE           ?PR?GETPARA?CMD
FF2067H   FF20A6H   000040H   BYTE   INSEG    CODE           ?PR?UARTBLE_SEND?UART
FF20A7H   FF20B9H   000013H   BYTE   UNIT     CODE           ?C_C51STARTUP
FF20BAH   FF20E2H   000029H   BYTE   UNIT     CODE           ?C_C51STARTUP?2
FF20E3H   FF20E5H   000003H   BYTE   UNIT     CODE           ?C_C51STARTUP?3
FF20E6H   FF2120H   00003BH   BYTE   INSEG    CODE           ?PR?WRITEPARA?CMD
FF2121H   FF215AH   00003AH   BYTE   INSEG    CODE           ?PR?ACK_CMD_F?CMD
FF215BH   FF2193H   000039H   BYTE   INSEG    CODE           ?PR?IOINIT?MAIN
FF2194H   FF21CBH   000038H   BYTE   INSEG    CODE           ?PR?ACK_CMD_SELFCHECK?CMD
FF21CCH   FF2200H   000035H   BYTE   INSEG    CODE           ?PR?UART3_INIT?UART
FF2201H   FF2234H   000034H   BYTE   INSEG    CODE           ?PR?CPSTOUSV_H?CALCDOSERATE
FF2235H   FF2265H   000031H   BYTE   INSEG    CODE           ?PR?DEVSLEEP?MAIN
FF2266H   FF2295H   000030H   BYTE   INSEG    CODE           ?PR?ACK_CMD_BAT?CMD
FF2296H   FF22C2H   00002DH   BYTE   INSEG    CODE           ?PR?EEPROM_SECTORERASE?FLASH
FF22C3H   FF22EAH   000028H   BYTE   INSEG    CODE           ?PR?SYSINIT?SYSTEM
FF22EBH   FF2311H   000027H   BYTE   INSEG    CODE           ?PR?ACK_CMD_SENSORONOFF?CMD
FF2312H   FF2336H   000025H   BYTE   INSEG    CODE           ?PR?ACK_CMD_S?CMD
FF2337H   FF235BH   000025H   BYTE   INSEG    CODE           ?PR?MEMCPY?_?MEMCPY
FF235CH   FF237EH   000023H   BYTE   INSEG    CODE           ?PR?RS485HND?MAIN
FF237FH   FF239CH   00001EH   BYTE   INSEG    CODE           ?PR?TIMER0_INIT?SYSTEM
FF239DH   FF23B9H   00001DH   BYTE   INSEG    CODE           ?PR?CLEARCOUNTER?DOSERATE
FF23BAH   FF23D4H   00001BH   BYTE   INSEG    CODE           ?PR?ACK_CMD_GMSW?CMD
FF23D5H   FF23EFH   00001BH   BYTE   INSEG    CODE           ?PR?ADC_INIT?BATVOLTAGE
FF23F0H   FF2409H   00001AH   BYTE   INSEG    CODE           ?PR?MEMSET?_?MEMSET
FF240AH   FF2422H   000019H   BYTE   INSEG    CODE           ?PR?DELAY_US?MAIN
FF2423H   FF243AH   000018H   BYTE   INSEG    CODE           ?PR?EEPROM_TRIG?FLASH
FF243BH   FF2450H   000016H   BYTE   INSEG    CODE           ?PR?ACK_CMD_E?CMD
FF2451H   FF2466H   000016H   BYTE   INSEG    CODE           ?PR?DISABLEEEPROM?FLASH
FF2467H   FF247CH   000016H   BYTE   INSEG    CODE           ?PR?TIMER3_ISR?SYSTEM
FF247DH   FF2492H   000016H   BYTE   INSEG    CODE           ?PR?TIMER4_ISR?SYSTEM
FF2493H   FF24A5H   000013H   BYTE   INSEG    CODE           ?PR?GETCOUNTER?SYSTEM
FF24A6H   FF24B7H   000012H   BYTE   INSEG    CODE           ?PR?ACK_CMD_C?CMD
FF24B8H   FF24C9H   000012H   BYTE   INSEG    CODE           ?PR?CLEARBLEBUF?UART
FF24CAH   FF24DBH   000012H   BYTE   INSEG    CODE           ?PR?CLEARRS485BUF?UART
FF24DCH   FF24ECH   000011H   BYTE   INSEG    CODE           ?PR?ERROR?MAIN
FF24EDH   FF24FCH   000010H   BYTE   INSEG    CODE           ?PR?ACK_CMD_CLEARMAXDOSERATE?CMD
FF24FDH   FF250CH   000010H   BYTE   INSEG    CODE           ?PR?ACK_CMD_CLEARDOSESUM?CMD
FF250DH   FF251CH   000010H   BYTE   INSEG    CODE           ?PR?SENSORMEASUREBEGIN?SENSOR
FF251DH   FF252BH   00000FH   BYTE   INSEG    CODE           ?PR?TIMER3_INIT?SYSTEM
FF252CH   FF253AH   00000FH   BYTE   INSEG    CODE           ?PR?TIMER4_INIT?SYSTEM
FF253BH   FF2547H   00000DH   BYTE   INSEG    CODE           ?PR?DEVINIT?MAIN
FF2548H   FF2551H   00000AH   BYTE   INSEG    CODE           ?PR?SAVEPARAM?CMD
FF2552H   FF255BH   00000AH   BYTE   INSEG    CODE           ?PR?ACK_CMD_SUREALARM?CMD
FF255CH   FF2562H   000007H   BYTE   INSEG    CODE           ?PR?SYSSLEEP?MAIN
FF2563H   FF2567H   000005H   BYTE   INSEG    CODE           ?PR?GET_LOW_COUNTER?SENSOR
FF2568H   FF2767H   000200H   BYTE   UNIT     HCONST         ?HC?CRC
FF2768H   FF291FH   0001B8H   BYTE   UNIT     HCONST         ?C_INITEDATA
FF2920H   FF2971H   000052H   BYTE   UNIT     HCONST         ?HC?MAIN
FF2972H   FF2985H   000014H   BYTE   UNIT     HCONST         ?HC?BATVOLTAGE

* * * * * * * * *   R E M O V E D     S E G M E N T S   * * * * * * * *
   *DEL*:           00005FH   BYTE   INSEG    CODE           ?PR?DWORDTOSMALL?CMD
   *DEL*:           000005H   BYTE   INSEG    CODE           ?PR?GETWORKMODE?CMD
   *DEL*:           000045H   BYTE   INSEG    CODE           ?PR?CHECKAPP?FLASH
   *DEL*:           000005H   BYTE   INSEG    CODE           ?PR?GET_HIGH_SMOOTH_COUNTER?SENSOR
   *DEL*:           000005H   BYTE   INSEG    CODE           ?PR?GET_LOW_SMOOTH_COUNTER?SENSOR
   *DEL*:           000017H   BYTE   INSEG    CODE           ?PR?TIMER1_INIT?SYSTEM
L251 LINKER/LOCATER V4.66.93.0                                                        05/23/2023  13:55:03  PAGE 5


   *DEL*:           000011H   BYTE   INSEG    CODE           ?PR?PUTCHAR?UART
   *DEL*:           000001H   BYTE   INSEG    CODE           ?PR?FILTERHIGH?CALCCPS
   *DEL*:           000143H   BYTE   INSEG    CODE           ?PR?GETHIS?DOSERATE
   *DEL*:           000134H   BYTE   INSEG    CODE           ?PR?RESVCPS?DOSERATE



OVERLAY MAP OF MODULE:   .\obj\PileCore (CalcDoseRate)


FUNCTION/MODULE                        BIT_GROUP   DATA_GROUP 
--> CALLED FUNCTION/MODULE            START  STOP  START  STOP
==============================================================
common_Port1_isr/Sensor               ----- -----  ----- -----

*** NEW ROOT ************************

Timer0_Isr/system                     ----- -----  ----- -----

*** NEW ROOT ************************

Timer3_Isr/system                     ----- -----  ----- -----

*** NEW ROOT ************************

Timer4_Isr/system                     ----- -----  ----- -----

*** NEW ROOT ************************

UART1_ISR/uart                        ----- -----  ----- -----

*** NEW ROOT ************************

UART3_ISR/uart                        ----- -----  ----- -----

*** NEW ROOT ************************

?C_C51STARTUP                         ----- -----  ----- -----

*** NEW ROOT ************************

?C_C51STARTUP?3                       ----- -----  ----- -----
  +--> main/main

main/main                             ----- -----  ----- -----
  +--> SysInit/system
  +--> IoInit/main
  +--> Adc_Init/BatVoltage
  +--> DevInit/main
  +--> delay_ms/main
  +--> Uart1_Init/uart
  +--> Uart3_Init/uart
  +--> ClearRs485Buf/uart
  +--> ClearBleBuf/uart
  +--> SensorInit/Sensor
  +--> Timer0_Init/system
  +--> Timer3_Init/system
  +--> Timer4_Init/system
  +--> GetPara/CMD
  +--> DeviceGetBatVal/BatVoltage
  +--> BtInit/main
  +--> DeviceGetBatAlarm/BatVoltage
  +--> SensorMeasureBegin/Sensor
  +--> InitArr/DoseRate
  +--> MCP4725_OutVol/mcp4725
L251 LINKER/LOCATER V4.66.93.0                                                        05/23/2023  13:55:03  PAGE 6


  +--> CaptureSensorPluseCounter/Sensor
  +--> Rs485Hnd/main
  +--> TimerTask/main

SysInit/system                        ----- -----  ----- -----

IoInit/main                           ----- -----  ----- -----

Adc_Init/BatVoltage                   ----- -----  ----- -----

DevInit/main                          ----- -----  ----- -----

delay_ms/main                         ----- -----  ----- -----

Uart1_Init/uart                       ----- -----  ----- -----

Uart3_Init/uart                       ----- -----  ----- -----

ClearRs485Buf/uart                    ----- -----  ----- -----
  +--> memset?_/memset

memset?_/memset                       ----- -----  ----- -----

ClearBleBuf/uart                      ----- -----  ----- -----
  +--> memset?_/memset

SensorInit/Sensor                     ----- -----  ----- -----
  +--> memset?_/memset

Timer0_Init/system                    ----- -----  ----- -----

Timer3_Init/system                    ----- -----  ----- -----

Timer4_Init/system                    ----- -----  ----- -----

GetPara/CMD                           ----- -----  ----- -----
  +--> EEPROM_read/flash
  +--> CheckSum/CMD
  +--> InitParam/main

EEPROM_read/flash                     ----- -----  ----- -----
  +--> EEPROM_Trig/flash
  +--> DisableEEPROM/flash

EEPROM_Trig/flash                     ----- -----  ----- -----

DisableEEPROM/flash                   ----- -----  ----- -----

CheckSum/CMD                          ----- -----  ----- -----

InitParam/main                        ----- -----  ----- -----
  +--> memset?_/memset
  +--> WritePara/CMD

WritePara/CMD                         ----- -----  ----- -----
  +--> EEPROM_SectorErase/flash
  +--> CheckSum/CMD
  +--> EEPROM_write/flash
  +--> Error/main

EEPROM_SectorErase/flash              ----- -----  ----- -----
  +--> EEPROM_Trig/flash
  +--> DisableEEPROM/flash

EEPROM_write/flash                    ----- -----  ----- -----
L251 LINKER/LOCATER V4.66.93.0                                                        05/23/2023  13:55:03  PAGE 7


  +--> EEPROM_Trig/flash
  +--> DisableEEPROM/flash

Error/main                            ----- -----  ----- -----
  +--> delay_ms/main

DeviceGetBatVal/BatVoltage            ----- -----  ----- -----
  +--> delay_us/main
  +--> arrange/BatVoltage

delay_us/main                         ----- -----  ----- -----

arrange/BatVoltage                    ----- -----  ----- -----

BtInit/main                           ----- -----  ----- -----
  +--> delay_ms/main
  +--> uartble_send/uart

uartble_send/uart                     ----- -----  ----- -----

DeviceGetBatAlarm/BatVoltage          ----- -----  ----- -----
  +--> DeviceGetBatVal/BatVoltage

SensorMeasureBegin/Sensor             ----- -----  ----- -----
  +--> GetCounter/system

GetCounter/system                     ----- -----  ----- -----

InitArr/DoseRate                      ----- -----  ----- -----
  +--> memset?_/memset

MCP4725_OutVol/mcp4725                ----- -----  ----- -----
  +--> ?C?ULIDIV/?C?ULDIV
  +--> delay_us/main

?C?ULIDIV/?C?ULDIV                    ----- -----  ----- -----

CaptureSensorPluseCounter/Sensor      ----- -----  ----- -----
  +--> GetCounter/system
  +--> GetHightCounter/system
  +--> CalcLow/CalcCPS
  +--> ClearCounter/DoseRate
  +--> CalcHigh/CalcCPS
  +--> CalcAlarmState/Sensor

GetHightCounter/system                ----- -----  ----- -----

CalcLow/CalcCPS                       ----- -----  ----- -----
  +--> CpsFilter/DoseRate
  +--> CounterPH/DoseRate
  +--> CpsToUsv_h/CalcDoseRate

CpsFilter/DoseRate                    ----- -----  ----- -----
  +--> ClearCounter/DoseRate
  +--> AddCounter/DoseRate

ClearCounter/DoseRate                 ----- -----  ----- -----
  +--> memset?_/memset

AddCounter/DoseRate                   ----- -----  ----- -----
  +--> PushCps/DoseRate

PushCps/DoseRate                      ----- -----  ----- -----

CounterPH/DoseRate                    ----- -----  ----- -----
L251 LINKER/LOCATER V4.66.93.0                                                        05/23/2023  13:55:03  PAGE 8



CpsToUsv_h/CalcDoseRate               ----- -----  ----- -----

CalcHigh/CalcCPS                      ----- -----  ----- -----
  +--> CpsFilter/DoseRate
  +--> CounterPH/DoseRate
  +--> CpsToUsv_h/CalcDoseRate

CalcAlarmState/Sensor                 ----- -----  ----- -----

Rs485Hnd/main                         ----- -----  ----- -----
  +--> DataPro/CMD
  +--> ClearRs485Buf/uart

DataPro/CMD                           ----- -----  ----- -----
  +--> memcpy?_/memcpy
  +--> CRC16/CRC
  +--> ACK_CMD_C/CMD
  +--> ACK_CMD_V/CMD
  +--> ACK_CMD_E/CMD
  +--> ACK_CMD_R/CMD
  +--> ACK_CMD_W/CMD
  +--> ACK_CMD_S/CMD
  +--> ACK_CMD_ClearDoseSum/CMD
  +--> ACK_CMD_ClearMaxDoseRate/CMD
  +--> ACK_CMD_SelfCheck/CMD
  +--> ACK_CMD_SensorONOFF/CMD
  +--> ACK_CMD_Bat/CMD
  +--> ACK_CMD_SureAlarm/CMD
  +--> ACK_CMD_GmSw/CMD
  +--> ACK_CMD_B/CMD
  +--> ACK_CMD_F/CMD

memcpy?_/memcpy                       ----- -----  ----- -----

CRC16/CRC                             ----- -----  ----- -----

ACK_CMD_C/CMD                         ----- -----  ----- -----
  +--> SendData/CMD

SendData/CMD                          ----- -----  ----- -----
  +--> memcpy?_/memcpy
  +--> CRC16/CRC
  +--> uart485_send/uart

uart485_send/uart                     ----- -----  ----- -----

ACK_CMD_V/CMD                         ----- -----  ----- -----
  +--> FloatToSmall/CMD
  +--> SendData/CMD

FloatToSmall/CMD                      ----- -----  ----- -----
  +--> memcpy?_/memcpy

ACK_CMD_E/CMD                         ----- -----  ----- -----
  +--> SendData/CMD

ACK_CMD_R/CMD                         ----- -----  ----- -----
  +--> FloatToSmall/CMD
  +--> WordToSmall/CMD
  +--> SendData/CMD

WordToSmall/CMD                       ----- -----  ----- -----
  +--> memcpy?_/memcpy

L251 LINKER/LOCATER V4.66.93.0                                                        05/23/2023  13:55:03  PAGE 9


ACK_CMD_W/CMD                         ----- -----  ----- -----
  +--> memcpy?_/memcpy
  +--> FloatToSmall/CMD
  +--> SendData/CMD
  +--> SaveParam/CMD

SaveParam/CMD                         ----- -----  ----- -----
  +--> WritePara/CMD

ACK_CMD_S/CMD                         ----- -----  ----- -----
  +--> SendData/CMD
  +--> SaveParam/CMD
  +--> MCP4725_OutVol/mcp4725

ACK_CMD_ClearDoseSum/CMD              ----- -----  ----- -----
  +--> SendData/CMD

ACK_CMD_ClearMaxDoseRate/CMD          ----- -----  ----- -----
  +--> SendData/CMD

ACK_CMD_SelfCheck/CMD                 ----- -----  ----- -----
  +--> Get_Low_Counter/Sensor
  +--> Get_High_Counter/Sensor
  +--> SendData/CMD

Get_Low_Counter/Sensor                ----- -----  ----- -----

Get_High_Counter/Sensor               ----- -----  ----- -----

ACK_CMD_SensorONOFF/CMD               ----- -----  ----- -----
  +--> SendData/CMD
  +--> SensorInit/Sensor

ACK_CMD_Bat/CMD                       ----- -----  ----- -----
  +--> DeviceGetBatAlarm/BatVoltage
  +--> WordToSmall/CMD
  +--> SendData/CMD

ACK_CMD_SureAlarm/CMD                 ----- -----  ----- -----
  +--> SendData/CMD

ACK_CMD_GmSw/CMD                      ----- -----  ----- -----
  +--> SendData/CMD

ACK_CMD_B/CMD                         ----- -----  ----- -----
  +--> memcpy?_/memcpy
  +--> FloatToSmall/CMD
  +--> SendData/CMD
  +--> SaveParam/CMD

ACK_CMD_F/CMD                         ----- -----  ----- -----
  +--> FloatToSmall/CMD
  +--> SendData/CMD

TimerTask/main                        ----- -----  ----- -----
  +--> DevSleep/main
  +--> sysSleep/main

DevSleep/main                         ----- -----  ----- -----
  +--> delay_ms/main
  +--> uartble_send/uart
  +--> sysSleep/main
  +--> SensorMeasureBegin/Sensor

sysSleep/main                         ----- -----  ----- -----
L251 LINKER/LOCATER V4.66.93.0                                                        05/23/2023  13:55:03  PAGE 10



*** NEW ROOT ************************

?C_C51STARTUP?2                       ----- -----  ----- -----



PUBLIC SYMBOLS OF MODULE:  .\obj\PileCore (CalcDoseRate)


      VALUE       CLASS    TYPE      PUBLIC SYMBOL NAME
      =================================================
      00FF05D4H   CODE     ---       ?C?BMOVENP
      00FF05D2H   CODE     ---       ?C?BMOVENP8
      00FF0398H   CODE     NEAR LAB  ?C?CASTF
      000000FFH   NUMBER   ---       ?C?CODESEG
      00FF0365H   CODE     NEAR LAB  ?C?FCASTC
      00FF0360H   CODE     NEAR LAB  ?C?FCASTI
      00FF035BH   CODE     NEAR LAB  ?C?FCASTL
      00FF0552H   CODE     ---       ?C?FP2SERIES
      00FF013CH   CODE     ---       ?C?FPADD
      00FF0317H   CODE     ---       ?C?FPCMP
      00FF0315H   CODE     ---       ?C?FPCMP3
      00FF0294H   CODE     ---       ?C?FPDIV
      00FF0501H   CODE     ---       ?C?FPGETOPN2
      00FF01F4H   CODE     ---       ?C?FPMUL
      00FF053EH   CODE     ---       ?C?FPNANRESULT
      00FF0546H   CODE     ---       ?C?FPOVERFLOW
      00FF051AH   CODE     ---       ?C?FPRESULT
      00FF0530H   CODE     ---       ?C?FPRESULT2
      00FF055BH   CODE     ---       ?C?FPSERIES
      00FF0139H   CODE     ---       ?C?FPSUB
      00FF0543H   CODE     ---       ?C?FPUNDERFLOW
      00FF20BAH   CODE     ---       ?C?INITEDATA
      00FF291EH   HCONST   WORD      ?C?INITEDATA_END
      00FF0000H   CODE     ---       ?C?STARTUP
      00FF0581H   CODE     NEAR LAB  ?C?ULDIV
      00FF057FH   CODE     NEAR LAB  ?C?ULIDIV
      00000001H   NUMBER   ---       ?C?XDATASEG
      00FF0000H   CODE     ---       ?C_STARTUP
      000005EEH   EDATA    BYTE      ?CalcHigh?BYTE
      000005D2H   EDATA    BYTE      ?CalcLow?BYTE
      00000008H   EDATA    BYTE      ?CpsToUsv_h?BYTE
      00000673H   EDATA    BYTE      ?EEPROM_read?BYTE
      0000060AH   EDATA    BYTE      ?EEPROM_write?BYTE
      00FF1D98H   CODE     ---       ACK_CMD_B
      00FF2266H   CODE     ---       ACK_CMD_Bat
      00FF24A6H   CODE     ---       ACK_CMD_C
      00FF24FDH   CODE     ---       ACK_CMD_ClearDoseSum
      00FF24EDH   CODE     ---       ACK_CMD_ClearMaxDoseRate
      00FF243BH   CODE     ---       ACK_CMD_E
      00FF2121H   CODE     ---       ACK_CMD_F
      00FF23BAH   CODE     ---       ACK_CMD_GmSw
      00FF14E9H   CODE     ---       ACK_CMD_R
      00FF2312H   CODE     ---       ACK_CMD_S
      00FF2194H   CODE     ---       ACK_CMD_SelfCheck
      00FF22EBH   CODE     ---       ACK_CMD_SensorONOFF
      00FF2552H   CODE     ---       ACK_CMD_SureAlarm
      00FF0026H   CODE     ---       ACK_CMD_V
      00FF13F7H   CODE     ---       ACK_CMD_W
*SFR* 000000BCH   DATA     BYTE      ADC_CONTR
*SFR* 000000BCH.5 DATA     BIT       ADC_FLAG
      00FF23D5H   CODE     ---       Adc_Init
*SFR* 000000BDH   DATA     BYTE      ADC_RES
*SFR* 000000BEH   DATA     BYTE      ADC_RESL
L251 LINKER/LOCATER V4.66.93.0                                                        05/23/2023  13:55:03  PAGE 11


*SFR* 000000BCH.6 DATA     BIT       ADC_START
*SFR* 000000DEH   DATA     BYTE      ADCCFG
      00FF0003H   CODE     ---       AddCounter
      00FF10C0H   CODE     ---       arrange
      00FF2568H   HCONST   ---       auchCRCHi
      00FF2668H   HCONST   ---       auchCRCLo
*SFR* 000000EFH   DATA     BYTE      AUXINTIF
*SFR* 0000008EH   DATA     BYTE      AUXR
*SFR* 00000097H   DATA     BYTE      AUXR2
      00000020H.0 BIT      BIT       B_TX1_Busy
      00000020H.1 BIT      BIT       B_TX3_Busy
      00FF1A37H   CODE     ---       BtInit
      00FF0E2AH   CODE     ---       CalcAlarmState
      00FF1CE3H   CODE     ---       CalcHigh
      00FF1C88H   CODE     ---       CalcLow
*SFR* 000000F1H   DATA     BYTE      CANICR
      00FF0C05H   CODE     ---       CaptureSensorPluseCounter
*DEL*:00000000H   CODE     ---       checkApp
      00FF1E37H   CODE     ---       CheckSum
      00FF24B8H   CODE     ---       ClearBleBuf
      00FF239DH   CODE     ---       ClearCounter
      00FF24CAH   CODE     ---       ClearRs485Buf
*SFR* 000000E6H   DATA     BYTE      CMPCR1
*SFR* 000000E7H   DATA     BYTE      CMPCR2
      00FF1E83H   CODE     ---       common_Port1_isr
      00FF12E6H   CODE     ---       CounterPH
      000001BFH   EDATA    ---       CpsArr
      00FF11D4H   CODE     ---       CpsFilter
      00FF2201H   CODE     ---       CpsToUsv_h
      00FF00A6H   CODE     ---       CRC16
      00FF0946H   CODE     ---       DataPro
      00FF1F14H   CODE     ---       delay_ms
      00FF240AH   CODE     ---       delay_us
      00FF175FH   CODE     ---       DeviceGetBatAlarm
      00FF1698H   CODE     ---       DeviceGetBatVal
      00FF253BH   CODE     ---       DevInit
      00FF2235H   CODE     ---       DevSleep
      00FF2451H   CODE     ---       DisableEEPROM
*DEL*:00000000H   CODE     ---       DwordToSmall
*SFR* 000000A8H.7 DATA     BIT       EA
*SFR* 000000BAH.7 DATA     BIT       EAXFR
      00FF1B5BH   CODE     ---       EEPROM_read
      00FF2296H   CODE     ---       EEPROM_SectorErase
      00FF2423H   CODE     ---       EEPROM_Trig
      00FF0FABH   CODE     ---       EEPROM_write
      00FF24DCH   CODE     ---       Error
*SFR* 000000A8H.4 DATA     BIT       ES
*SFR* 000000AFH.3 DATA     BIT       ES3
*SFR* 000000A8H.1 DATA     BIT       ET0
*SFR* 000000A8H.3 DATA     BIT       ET1
      00FF040EH   CODE     ---       exp?_
*SFR* 000000D0H.5 DATA     BIT       F0
*DEL*:00000000H   CODE     ---       FilterHigh
      00FF1C29H   CODE     ---       FloatToSmall
      00FF009EH   CODE     ---       Get_High_Counter
*DEL*:00000000H   CODE     ---       Get_High_Smooth_Counter
      00FF2563H   CODE     ---       Get_Low_Counter
*DEL*:00000000H   CODE     ---       Get_Low_Smooth_Counter
      00FF2493H   CODE     ---       GetCounter
      00FF000EH   CODE     ---       GetHightCounter
*DEL*:00000000H   CODE     ---       GetHis
      00FF2026H   CODE     ---       GetPara
*DEL*:00000000H   CODE     ---       GetWorkMode
      000003AEH   EDATA    ---       gs_CMD
      00000555H   EDATA    DWORD     High_CPS
L251 LINKER/LOCATER V4.66.93.0                                                        05/23/2023  13:55:03  PAGE 12


*SFR* 000000F6H   DATA     BYTE      IAP_ADDRE
*SFR* 000000C3H   DATA     BYTE      IAP_ADDRH
*SFR* 000000C4H   DATA     BYTE      IAP_ADDRL
*SFR* 000000C5H   DATA     BYTE      IAP_CMD
*SFR* 000000C7H   DATA     BYTE      IAP_CONTR
*SFR* 000000C2H   DATA     BYTE      IAP_DATA
*SFR* 000000F5H   DATA     BYTE      IAP_TPS
*SFR* 000000C6H   DATA     BYTE      IAP_TRIG
*SFR* 000000A8H   DATA     BYTE      IE
*SFR* 000000AFH   DATA     BYTE      IE2
      00FF1D3EH   CODE     ---       InitArr
      00FF1825H   CODE     ---       InitParam
      00000561H   EDATA    DWORD     InSenserCnt
*SFR* 0000008FH   DATA     BYTE      INTCLKO
      00FF215BH   CODE     ---       IoInit
*SFR* 000000B8H   DATA     BYTE      IP
*SFR* 000000B5H   DATA     BYTE      IP2
*SFR* 000000B6H   DATA     BYTE      IP2H
*SFR* 000000DFH   DATA     BYTE      IP3
*SFR* 000000EEH   DATA     BYTE      IP3H
*SFR* 000000B7H   DATA     BYTE      IPH
*SFR* 0000009DH   DATA     BYTE      IRCBAND
      0000068FH   EDATA    DWORD     lCP100MS
      00000693H   EDATA    DWORD     lCPS
*SFR* 000000F9H   DATA     BYTE      LINICR
      00000575H   EDATA    DWORD     Low_CPS
      0000061EH   EDATA    BYTE      LowOverFlowFlag3
      0000061FH   EDATA    BYTE      LowOverFlowFlag4
      00FF18E9H   CODE     ---       main
      00FF05F7H   CODE     ---       MCP4725_OutVol
      00FF2337H   CODE     ---       memcpy?_
      00FF23F0H   CODE     ---       memset?_
      0000055DH   EDATA    FLOAT     NewCps
      00000569H   EDATA    FLOAT     NewDr
      00000565H   EDATA    FLOAT     OldDr
*SFR* 00000080H   DATA     BYTE      P0
*SFR* 00000094H   DATA     BYTE      P0M0
*SFR* 00000093H   DATA     BYTE      P0M1
*SFR* 00000090H   DATA     BYTE      P1
*SFR* 00000092H   DATA     BYTE      P1M0
*SFR* 00000091H   DATA     BYTE      P1M1
*SFR* 000000A0H   DATA     BYTE      P2
      000006EFH   EDATA    BYTE      P2DIR
*SFR* 00000096H   DATA     BYTE      P2M0
*SFR* 00000095H   DATA     BYTE      P2M1
*SFR* 000000B0H   DATA     BYTE      P3
*SFR* 000000B2H   DATA     BYTE      P3M0
*SFR* 000000B1H   DATA     BYTE      P3M1
*SFR* 000000C0H   DATA     BYTE      P4
*SFR* 000000B4H   DATA     BYTE      P4M0
*SFR* 000000B3H   DATA     BYTE      P4M1
*SFR* 000000C8H   DATA     BYTE      P5
*SFR* 000000CAH   DATA     BYTE      P5M0
*SFR* 000000C9H   DATA     BYTE      P5M1
*SFR* 000000E8H   DATA     BYTE      P6
*SFR* 000000CCH   DATA     BYTE      P6M0
*SFR* 000000CBH   DATA     BYTE      P6M1
*SFR* 000000F8H   DATA     BYTE      P7
*SFR* 000000E2H   DATA     BYTE      P7M0
*SFR* 000000E1H   DATA     BYTE      P7M1
*SFR* 000000A2H   DATA     BYTE      P_SW1
*SFR* 000000BAH   DATA     BYTE      P_SW2
*SFR* 000000BBH   DATA     BYTE      P_SW3
*SFR* 00000087H   DATA     BYTE      PCON
      00000622H   EDATA    DWORD     Pluse3Cnt
L251 LINKER/LOCATER V4.66.93.0                                                        05/23/2023  13:55:03  PAGE 13


      0000061CH   EDATA    BYTE      Pluse3PortCnt
      00000626H   EDATA    DWORD     Pluse4Cnt
      0000061DH   EDATA    BYTE      Pluse4PortCnt
*SFR* 000000B8H.4 DATA     BIT       PS
*SFR* 000000B7H.4 DATA     BIT       PSH
*SFR* 000000D0H   DATA     BYTE      PSW
*SFR* 000000B8H.1 DATA     BIT       PT0
*SFR* 000000B7H.1 DATA     BIT       PT0H
      00FF1ACCH   CODE     ---       PushCps
*DEL*:00000000H   CODE     ---       putchar
*SFR* 00000098H.4 DATA     BIT       REN
*DEL*:00000000H   CODE     ---       ResvCps
*SFR* 00000098H.0 DATA     BIT       RI
      00FF235CH   CODE     ---       Rs485Hnd
*SFR* 000000FFH   DATA     BYTE      RSTCFG
      0000056DH   EDATA    FLOAT     RtCps
      00000021H   EDATA    ---       RX1_Buffer
      000001B5H   EDATA    BYTE      RX1_Cnt
      000001B1H   EDATA    WORD      Rx1_Timer
      000000E9H   EDATA    ---       RX3_Buffer
      000001B6H   EDATA    BYTE      RX3_Cnt
      000001B3H   EDATA    WORD      Rx3_Timer
*SFR* 0000009AH   DATA     BYTE      S2CON
*SFR* 000000BAH.1 DATA     BIT       S3_S
*SFR* 000000ADH   DATA     BYTE      S3BUF
*SFR* 000000ACH   DATA     BYTE      S3CON
*SFR* 000000ACH.4 DATA     BIT       S3REN
*SFR* 000000ACH.0 DATA     BIT       S3RI
*SFR* 000000ACH.1 DATA     BIT       S3TI
*SFR* 000000FDH   DATA     BYTE      S4CON
      000003B6H   EDATA    ---       s_Bat
      000003B2H   EDATA    ---       s_Head
      00FF2548H   CODE     ---       SaveParam
*SFR* 00000099H   DATA     BYTE      SBUF
*SFR* 00000098H   DATA     BYTE      SCON
      00FF199AH   CODE     ---       SendData
      00FF008EH   CODE     ---       SensorInit
      00FF250DH   CODE     ---       SensorMeasureBegin
      000003BAH   EDATA    ---       snedbuf
*SFR* 000000CEH   DATA     BYTE      SPCTL
*SFR* 000000CDH   DATA     BYTE      SPSTAT
      00FF0471H   CODE     ---       sqrt?_
      00FF22C3H   CODE     ---       SysInit
      000002C9H   EDATA    ---       SysRunState
      00FF255CH   CODE     ---       sysSleep
*SFR* 000000D6H   DATA     BYTE      T2H
*SFR* 000000D7H   DATA     BYTE      T2L
*SFR* 000000D4H   DATA     BYTE      T3H
*SFR* 000000D5H   DATA     BYTE      T3L
*SFR* 000000DDH.3 DATA     BIT       T3R
*SFR* 000000D2H   DATA     BYTE      T4H
*SFR* 000000D3H   DATA     BYTE      T4L
*SFR* 000000DDH.7 DATA     BIT       T4R
*SFR* 000000DDH   DATA     BYTE      T4T3M
*SFR* 00000088H   DATA     BYTE      TCON
*SFR* 00000088H.5 DATA     BIT       TF0
*SFR* 00000088H.7 DATA     BIT       TF1
*SFR* 0000008CH   DATA     BYTE      TH0
*SFR* 0000008DH   DATA     BYTE      TH1
*SFR* 00000098H.1 DATA     BIT       TI
      00FF237FH   CODE     ---       Timer0_Init
      00FF1FA1H   CODE     ---       Timer0_Isr
      00000620H   EDATA    WORD      Timer0Cnt
*DEL*:00000000H   CODE     ---       Timer1_Init
      00FF251DH   CODE     ---       Timer3_Init
L251 LINKER/LOCATER V4.66.93.0                                                        05/23/2023  13:55:03  PAGE 14


      00FF2467H   CODE     ---       Timer3_Isr
      00FF252CH   CODE     ---       Timer4_Init
      00FF247DH   CODE     ---       Timer4_Isr
      00FF15CAH   CODE     ---       TimerTask
*SFR* 0000008AH   DATA     BYTE      TL0
*SFR* 0000008BH   DATA     BYTE      TL1
*SFR* 00000089H   DATA     BYTE      TMOD
*SFR* 00000088H.4 DATA     BIT       TR0
*SFR* 00000088H.6 DATA     BIT       TR1
      000001B7H   EDATA    BYTE      TX1_Cnt
      000001B8H   EDATA    BYTE      TX3_Cnt
      00FF1FE4H   CODE     ---       Uart1_Init
      00FF1BC7H   CODE     ---       UART1_ISR
      00FF21CCH   CODE     ---       Uart3_Init
      00FF1DE8H   CODE     ---       UART3_ISR
      00FF1F5BH   CODE     ---       uart485_send
      00FF2067H   CODE     ---       uartble_send
*SFR* 000000F4H   DATA     BYTE      USBCON
*SFR* 000000C1H   DATA     BYTE      WDT_CONTR
      00FF1ECDH   CODE     ---       WordToSmall
      00FF20E6H   CODE     ---       WritePara
*SFR* 000000E9H   DATA     BYTE      WTST



SYMBOL TABLE OF MODULE:  .\obj\PileCore (CalcDoseRate)

      VALUE       REP       CLASS    TYPE      SYMBOL NAME
      ====================================================
      ---         MODULE    ---      ---       CalcDoseRate
      00FF2201H   PUBLIC    CODE     ---       CpsToUsv_h
      00000008H   PUBLIC    EDATA    BYTE      ?CpsToUsv_h?BYTE
      000000D0H   SFRSYM    DATA     BYTE      PSW
      0000009DH   SFRSYM    DATA     BYTE      IRCBAND
      00000097H   SFRSYM    DATA     BYTE      AUXR2
      000000EFH   SFRSYM    DATA     BYTE      AUXINTIF
      000000FDH   SFRSYM    DATA     BYTE      S4CON
      000000ACH   SFRSYM    DATA     BYTE      S3CON
      0000009AH   SFRSYM    DATA     BYTE      S2CON
      000000B7H   SFRSYM    DATA     BYTE      IPH
      000000CDH   SFRSYM    DATA     BYTE      SPSTAT
      000000DDH   SFRSYM    DATA     BYTE      T4T3M
      000000C1H   SFRSYM    DATA     BYTE      WDT_CONTR
      000000DFH   SFRSYM    DATA     BYTE      IP3
      000000F4H   SFRSYM    DATA     BYTE      USBCON
      000000B5H   SFRSYM    DATA     BYTE      IP2
      000000FFH   SFRSYM    DATA     BYTE      RSTCFG
      000000C7H   SFRSYM    DATA     BYTE      IAP_CONTR
      000000F9H   SFRSYM    DATA     BYTE      LINICR
      0000008EH   SFRSYM    DATA     BYTE      AUXR
      000000AFH   SFRSYM    DATA     BYTE      IE2
      00000088H   SFRSYM    DATA     BYTE      TCON
      00000089H   SFRSYM    DATA     BYTE      TMOD
      00000098H   SFRSYM    DATA     BYTE      SCON
      000000F1H   SFRSYM    DATA     BYTE      CANICR
      00000087H   SFRSYM    DATA     BYTE      PCON
      000000BCH   SFRSYM    DATA     BYTE      ADC_CONTR
      000000E7H   SFRSYM    DATA     BYTE      CMPCR2
      000000E6H   SFRSYM    DATA     BYTE      CMPCR1
      000000DEH   SFRSYM    DATA     BYTE      ADCCFG
      000000B8H   SFRSYM    DATA     BYTE      IP
      0000008FH   SFRSYM    DATA     BYTE      INTCLKO
      000000EEH   SFRSYM    DATA     BYTE      IP3H
      000000B6H   SFRSYM    DATA     BYTE      IP2H
      000000A8H   SFRSYM    DATA     BYTE      IE
L251 LINKER/LOCATER V4.66.93.0                                                        05/23/2023  13:55:03  PAGE 15


      000000BBH   SFRSYM    DATA     BYTE      P_SW3
      000000BAH   SFRSYM    DATA     BYTE      P_SW2
      000000A2H   SFRSYM    DATA     BYTE      P_SW1
      000000CEH   SFRSYM    DATA     BYTE      SPCTL
      000000F8H   SFRSYM    DATA     BYTE      P7
      000000E8H   SFRSYM    DATA     BYTE      P6
      000000C8H   SFRSYM    DATA     BYTE      P5
      000000C0H   SFRSYM    DATA     BYTE      P4
      000000B0H   SFRSYM    DATA     BYTE      P3
      000000A0H   SFRSYM    DATA     BYTE      P2
      00000090H   SFRSYM    DATA     BYTE      P1
      00000080H   SFRSYM    DATA     BYTE      P0

      ---         MODULE    ---      ---       CMD
      00FF2548H   PUBLIC    CODE     ---       SaveParam
      00FF199AH   PUBLIC    CODE     ---       SendData
      00FF20E6H   PUBLIC    CODE     ---       WritePara
      00FF24EDH   PUBLIC    CODE     ---       ACK_CMD_ClearMaxDoseRate
      00FF24FDH   PUBLIC    CODE     ---       ACK_CMD_ClearDoseSum
      00FF1E37H   PUBLIC    CODE     ---       CheckSum
      00FF1D98H   PUBLIC    CODE     ---       ACK_CMD_B
      00FF2026H   PUBLIC    CODE     ---       GetPara
      00FF24A6H   PUBLIC    CODE     ---       ACK_CMD_C
      00FF243BH   PUBLIC    CODE     ---       ACK_CMD_E
      00FF2121H   PUBLIC    CODE     ---       ACK_CMD_F
      00FF0946H   PUBLIC    CODE     ---       DataPro
      00FF14E9H   PUBLIC    CODE     ---       ACK_CMD_R
      00FF2312H   PUBLIC    CODE     ---       ACK_CMD_S
      00FF1C29H   PUBLIC    CODE     ---       FloatToSmall
      00FF0026H   PUBLIC    CODE     ---       ACK_CMD_V
      00FF13F7H   PUBLIC    CODE     ---       ACK_CMD_W
      00FF2194H   PUBLIC    CODE     ---       ACK_CMD_SelfCheck
      00FF22EBH   PUBLIC    CODE     ---       ACK_CMD_SensorONOFF
      00FF1ECDH   PUBLIC    CODE     ---       WordToSmall
      00FF23BAH   PUBLIC    CODE     ---       ACK_CMD_GmSw
      00FF2552H   PUBLIC    CODE     ---       ACK_CMD_SureAlarm
      00FF2266H   PUBLIC    CODE     ---       ACK_CMD_Bat
      000003AEH   PUBLIC    EDATA    ---       gs_CMD
      000003B2H   PUBLIC    EDATA    ---       s_Head
      000003B6H   PUBLIC    EDATA    ---       s_Bat
      000003BAH   PUBLIC    EDATA    ---       snedbuf
      000000D0H   SFRSYM    DATA     BYTE      PSW
      0000009DH   SFRSYM    DATA     BYTE      IRCBAND
      00000097H   SFRSYM    DATA     BYTE      AUXR2
      000000EFH   SFRSYM    DATA     BYTE      AUXINTIF
      000000FDH   SFRSYM    DATA     BYTE      S4CON
      000000ACH   SFRSYM    DATA     BYTE      S3CON
      0000009AH   SFRSYM    DATA     BYTE      S2CON
      000000B7H   SFRSYM    DATA     BYTE      IPH
      000000CDH   SFRSYM    DATA     BYTE      SPSTAT
      000000DDH   SFRSYM    DATA     BYTE      T4T3M
      000000C1H   SFRSYM    DATA     BYTE      WDT_CONTR
      000000DFH   SFRSYM    DATA     BYTE      IP3
      000000F4H   SFRSYM    DATA     BYTE      USBCON
      000000B5H   SFRSYM    DATA     BYTE      IP2
      000000FFH   SFRSYM    DATA     BYTE      RSTCFG
      000000C7H   SFRSYM    DATA     BYTE      IAP_CONTR
      000000F9H   SFRSYM    DATA     BYTE      LINICR
      0000008EH   SFRSYM    DATA     BYTE      AUXR
      000000AFH   SFRSYM    DATA     BYTE      IE2
      00000088H   SFRSYM    DATA     BYTE      TCON
      00000089H   SFRSYM    DATA     BYTE      TMOD
      00000098H   SFRSYM    DATA     BYTE      SCON
      000000F1H   SFRSYM    DATA     BYTE      CANICR
      00000087H   SFRSYM    DATA     BYTE      PCON
L251 LINKER/LOCATER V4.66.93.0                                                        05/23/2023  13:55:03  PAGE 16


      000000BCH   SFRSYM    DATA     BYTE      ADC_CONTR
      000000E7H   SFRSYM    DATA     BYTE      CMPCR2
      000000E6H   SFRSYM    DATA     BYTE      CMPCR1
      000000DEH   SFRSYM    DATA     BYTE      ADCCFG
      000000B8H   SFRSYM    DATA     BYTE      IP
      0000008FH   SFRSYM    DATA     BYTE      INTCLKO
      000000EEH   SFRSYM    DATA     BYTE      IP3H
      000000B6H   SFRSYM    DATA     BYTE      IP2H
      000000A8H   SFRSYM    DATA     BYTE      IE
      000000BBH   SFRSYM    DATA     BYTE      P_SW3
      000000BAH   SFRSYM    DATA     BYTE      P_SW2
      000000A2H   SFRSYM    DATA     BYTE      P_SW1
      000000CEH   SFRSYM    DATA     BYTE      SPCTL
      000000F8H   SFRSYM    DATA     BYTE      P7
      000000A8H.7 SFRSYM    DATA     BIT       EA
      000000E8H   SFRSYM    DATA     BYTE      P6
      000000C8H   SFRSYM    DATA     BYTE      P5
      000000C0H   SFRSYM    DATA     BYTE      P4
      000000B0H   SFRSYM    DATA     BYTE      P3
      000000A0H   SFRSYM    DATA     BYTE      P2
      00000090H   SFRSYM    DATA     BYTE      P1
      00000080H   SFRSYM    DATA     BYTE      P0

      ---         MODULE    ---      ---       flash
      00FF2451H   PUBLIC    CODE     ---       DisableEEPROM
      00FF2296H   PUBLIC    CODE     ---       EEPROM_SectorErase
      00FF2423H   PUBLIC    CODE     ---       EEPROM_Trig
      00FF1B5BH   PUBLIC    CODE     ---       EEPROM_read
      00FF0FABH   PUBLIC    CODE     ---       EEPROM_write
      00000673H   PUBLIC    EDATA    BYTE      ?EEPROM_read?BYTE
      0000060AH   PUBLIC    EDATA    BYTE      ?EEPROM_write?BYTE
      000000D0H   SFRSYM    DATA     BYTE      PSW
      0000009DH   SFRSYM    DATA     BYTE      IRCBAND
      000000D0H.5 SFRSYM    DATA     BIT       F0
      00000097H   SFRSYM    DATA     BYTE      AUXR2
      000000C6H   SFRSYM    DATA     BYTE      IAP_TRIG
      000000EFH   SFRSYM    DATA     BYTE      AUXINTIF
      000000FDH   SFRSYM    DATA     BYTE      S4CON
      000000ACH   SFRSYM    DATA     BYTE      S3CON
      0000009AH   SFRSYM    DATA     BYTE      S2CON
      000000B7H   SFRSYM    DATA     BYTE      IPH
      000000CDH   SFRSYM    DATA     BYTE      SPSTAT
      000000DDH   SFRSYM    DATA     BYTE      T4T3M
      000000C1H   SFRSYM    DATA     BYTE      WDT_CONTR
      000000C2H   SFRSYM    DATA     BYTE      IAP_DATA
      000000DFH   SFRSYM    DATA     BYTE      IP3
      000000F4H   SFRSYM    DATA     BYTE      USBCON
      000000B5H   SFRSYM    DATA     BYTE      IP2
      000000FFH   SFRSYM    DATA     BYTE      RSTCFG
      000000C7H   SFRSYM    DATA     BYTE      IAP_CONTR
      000000F9H   SFRSYM    DATA     BYTE      LINICR
      0000008EH   SFRSYM    DATA     BYTE      AUXR
      000000AFH   SFRSYM    DATA     BYTE      IE2
      00000088H   SFRSYM    DATA     BYTE      TCON
      00000089H   SFRSYM    DATA     BYTE      TMOD
      00000098H   SFRSYM    DATA     BYTE      SCON
      000000F5H   SFRSYM    DATA     BYTE      IAP_TPS
      000000F1H   SFRSYM    DATA     BYTE      CANICR
      00000087H   SFRSYM    DATA     BYTE      PCON
      000000BCH   SFRSYM    DATA     BYTE      ADC_CONTR
      000000E7H   SFRSYM    DATA     BYTE      CMPCR2
      000000E6H   SFRSYM    DATA     BYTE      CMPCR1
      000000C4H   SFRSYM    DATA     BYTE      IAP_ADDRL
      000000C3H   SFRSYM    DATA     BYTE      IAP_ADDRH
      000000F6H   SFRSYM    DATA     BYTE      IAP_ADDRE
L251 LINKER/LOCATER V4.66.93.0                                                        05/23/2023  13:55:03  PAGE 17


      000000DEH   SFRSYM    DATA     BYTE      ADCCFG
      000000B8H   SFRSYM    DATA     BYTE      IP
      0000008FH   SFRSYM    DATA     BYTE      INTCLKO
      000000EEH   SFRSYM    DATA     BYTE      IP3H
      000000B6H   SFRSYM    DATA     BYTE      IP2H
      000000C5H   SFRSYM    DATA     BYTE      IAP_CMD
      000000A8H   SFRSYM    DATA     BYTE      IE
      000000BBH   SFRSYM    DATA     BYTE      P_SW3
      000000BAH   SFRSYM    DATA     BYTE      P_SW2
      000000A2H   SFRSYM    DATA     BYTE      P_SW1
      000000CEH   SFRSYM    DATA     BYTE      SPCTL
      000000F8H   SFRSYM    DATA     BYTE      P7
      000000A8H.7 SFRSYM    DATA     BIT       EA
      000000E8H   SFRSYM    DATA     BYTE      P6
      000000C8H   SFRSYM    DATA     BYTE      P5
      000000C0H   SFRSYM    DATA     BYTE      P4
      000000B0H   SFRSYM    DATA     BYTE      P3
      000000A0H   SFRSYM    DATA     BYTE      P2
      00000090H   SFRSYM    DATA     BYTE      P1
      00000080H   SFRSYM    DATA     BYTE      P0

      ---         MODULE    ---      ---       i2c
      000006EFH   PUBLIC    EDATA    BYTE      P2DIR
      000000D0H   SFRSYM    DATA     BYTE      PSW
      0000009DH   SFRSYM    DATA     BYTE      IRCBAND
      00000097H   SFRSYM    DATA     BYTE      AUXR2
      000000EFH   SFRSYM    DATA     BYTE      AUXINTIF
      000000FDH   SFRSYM    DATA     BYTE      S4CON
      000000ACH   SFRSYM    DATA     BYTE      S3CON
      0000009AH   SFRSYM    DATA     BYTE      S2CON
      000000B7H   SFRSYM    DATA     BYTE      IPH
      000000CDH   SFRSYM    DATA     BYTE      SPSTAT
      000000DDH   SFRSYM    DATA     BYTE      T4T3M
      000000C1H   SFRSYM    DATA     BYTE      WDT_CONTR
      000000DFH   SFRSYM    DATA     BYTE      IP3
      000000F4H   SFRSYM    DATA     BYTE      USBCON
      000000B5H   SFRSYM    DATA     BYTE      IP2
      000000FFH   SFRSYM    DATA     BYTE      RSTCFG
      000000C7H   SFRSYM    DATA     BYTE      IAP_CONTR
      000000F9H   SFRSYM    DATA     BYTE      LINICR
      0000008EH   SFRSYM    DATA     BYTE      AUXR
      000000AFH   SFRSYM    DATA     BYTE      IE2
      00000088H   SFRSYM    DATA     BYTE      TCON
      00000089H   SFRSYM    DATA     BYTE      TMOD
      00000098H   SFRSYM    DATA     BYTE      SCON
      000000F1H   SFRSYM    DATA     BYTE      CANICR
      00000087H   SFRSYM    DATA     BYTE      PCON
      000000BCH   SFRSYM    DATA     BYTE      ADC_CONTR
      000000E7H   SFRSYM    DATA     BYTE      CMPCR2
      000000E6H   SFRSYM    DATA     BYTE      CMPCR1
      000000DEH   SFRSYM    DATA     BYTE      ADCCFG
      000000B8H   SFRSYM    DATA     BYTE      IP
      0000008FH   SFRSYM    DATA     BYTE      INTCLKO
      000000EEH   SFRSYM    DATA     BYTE      IP3H
      000000B6H   SFRSYM    DATA     BYTE      IP2H
      000000A8H   SFRSYM    DATA     BYTE      IE
      000000BBH   SFRSYM    DATA     BYTE      P_SW3
      000000BAH   SFRSYM    DATA     BYTE      P_SW2
      000000A2H   SFRSYM    DATA     BYTE      P_SW1
      000000CEH   SFRSYM    DATA     BYTE      SPCTL
      000000F8H   SFRSYM    DATA     BYTE      P7
      000000E8H   SFRSYM    DATA     BYTE      P6
      000000C8H   SFRSYM    DATA     BYTE      P5
      000000C0H   SFRSYM    DATA     BYTE      P4
      000000B0H   SFRSYM    DATA     BYTE      P3
L251 LINKER/LOCATER V4.66.93.0                                                        05/23/2023  13:55:03  PAGE 18


      000000A0H   SFRSYM    DATA     BYTE      P2
      00000090H   SFRSYM    DATA     BYTE      P1
      00000080H   SFRSYM    DATA     BYTE      P0

      ---         MODULE    ---      ---       mcp4725
      00FF05F7H   PUBLIC    CODE     ---       MCP4725_OutVol
      000000D0H   SFRSYM    DATA     BYTE      PSW
      0000009DH   SFRSYM    DATA     BYTE      IRCBAND
      00000097H   SFRSYM    DATA     BYTE      AUXR2
      000000EFH   SFRSYM    DATA     BYTE      AUXINTIF
      000000FDH   SFRSYM    DATA     BYTE      S4CON
      000000ACH   SFRSYM    DATA     BYTE      S3CON
      0000009AH   SFRSYM    DATA     BYTE      S2CON
      000000B7H   SFRSYM    DATA     BYTE      IPH
      000000CDH   SFRSYM    DATA     BYTE      SPSTAT
      000000DDH   SFRSYM    DATA     BYTE      T4T3M
      000000C1H   SFRSYM    DATA     BYTE      WDT_CONTR
      000000DFH   SFRSYM    DATA     BYTE      IP3
      000000F4H   SFRSYM    DATA     BYTE      USBCON
      000000B5H   SFRSYM    DATA     BYTE      IP2
      000000FFH   SFRSYM    DATA     BYTE      RSTCFG
      000000C7H   SFRSYM    DATA     BYTE      IAP_CONTR
      000000F9H   SFRSYM    DATA     BYTE      LINICR
      0000008EH   SFRSYM    DATA     BYTE      AUXR
      000000AFH   SFRSYM    DATA     BYTE      IE2
      00000088H   SFRSYM    DATA     BYTE      TCON
      00000089H   SFRSYM    DATA     BYTE      TMOD
      00000098H   SFRSYM    DATA     BYTE      SCON
      000000F1H   SFRSYM    DATA     BYTE      CANICR
      00000087H   SFRSYM    DATA     BYTE      PCON
      000000BCH   SFRSYM    DATA     BYTE      ADC_CONTR
      000000E7H   SFRSYM    DATA     BYTE      CMPCR2
      000000E6H   SFRSYM    DATA     BYTE      CMPCR1
      000000DEH   SFRSYM    DATA     BYTE      ADCCFG
      000000B8H   SFRSYM    DATA     BYTE      IP
      0000008FH   SFRSYM    DATA     BYTE      INTCLKO
      000000EEH   SFRSYM    DATA     BYTE      IP3H
      000000B6H   SFRSYM    DATA     BYTE      IP2H
      000000A8H   SFRSYM    DATA     BYTE      IE
      000000BBH   SFRSYM    DATA     BYTE      P_SW3
      000000BAH   SFRSYM    DATA     BYTE      P_SW2
      000000A2H   SFRSYM    DATA     BYTE      P_SW1
      000000CEH   SFRSYM    DATA     BYTE      SPCTL
      000000F8H   SFRSYM    DATA     BYTE      P7
      000000E8H   SFRSYM    DATA     BYTE      P6
      000000C8H   SFRSYM    DATA     BYTE      P5
      000000C0H   SFRSYM    DATA     BYTE      P4
      000000B0H   SFRSYM    DATA     BYTE      P3
      000000A0H   SFRSYM    DATA     BYTE      P2
      00000090H   SFRSYM    DATA     BYTE      P1
      00000080H   SFRSYM    DATA     BYTE      P0

      ---         MODULE    ---      ---       Sensor
      00FF008EH   PUBLIC    CODE     ---       SensorInit
      00FF250DH   PUBLIC    CODE     ---       SensorMeasureBegin
      00FF009EH   PUBLIC    CODE     ---       Get_High_Counter
      00FF0C05H   PUBLIC    CODE     ---       CaptureSensorPluseCounter
      00FF0E2AH   PUBLIC    CODE     ---       CalcAlarmState
      00FF1E83H   PUBLIC    CODE     ---       common_Port1_isr
      00FF2563H   PUBLIC    CODE     ---       Get_Low_Counter
      00000555H   PUBLIC    EDATA    DWORD     High_CPS
      0000055DH   PUBLIC    EDATA    FLOAT     NewCps
      00000561H   PUBLIC    EDATA    DWORD     InSenserCnt
      00000565H   PUBLIC    EDATA    FLOAT     OldDr
      00000569H   PUBLIC    EDATA    FLOAT     NewDr
L251 LINKER/LOCATER V4.66.93.0                                                        05/23/2023  13:55:03  PAGE 19


      0000056DH   PUBLIC    EDATA    FLOAT     RtCps
      00000575H   PUBLIC    EDATA    DWORD     Low_CPS
      000000D0H   SFRSYM    DATA     BYTE      PSW
      0000009DH   SFRSYM    DATA     BYTE      IRCBAND
      00000097H   SFRSYM    DATA     BYTE      AUXR2
      000000EFH   SFRSYM    DATA     BYTE      AUXINTIF
      000000FDH   SFRSYM    DATA     BYTE      S4CON
      000000ACH   SFRSYM    DATA     BYTE      S3CON
      0000009AH   SFRSYM    DATA     BYTE      S2CON
      000000B7H   SFRSYM    DATA     BYTE      IPH
      000000CDH   SFRSYM    DATA     BYTE      SPSTAT
      000000DDH   SFRSYM    DATA     BYTE      T4T3M
      000000C1H   SFRSYM    DATA     BYTE      WDT_CONTR
      000000DFH   SFRSYM    DATA     BYTE      IP3
      000000F4H   SFRSYM    DATA     BYTE      USBCON
      000000B5H   SFRSYM    DATA     BYTE      IP2
      000000FFH   SFRSYM    DATA     BYTE      RSTCFG
      000000C7H   SFRSYM    DATA     BYTE      IAP_CONTR
      000000F9H   SFRSYM    DATA     BYTE      LINICR
      0000008EH   SFRSYM    DATA     BYTE      AUXR
      000000AFH   SFRSYM    DATA     BYTE      IE2
      00000088H   SFRSYM    DATA     BYTE      TCON
      00000089H   SFRSYM    DATA     BYTE      TMOD
      00000098H   SFRSYM    DATA     BYTE      SCON
      000000F1H   SFRSYM    DATA     BYTE      CANICR
      00000087H   SFRSYM    DATA     BYTE      PCON
      000000BCH   SFRSYM    DATA     BYTE      ADC_CONTR
      000000E7H   SFRSYM    DATA     BYTE      CMPCR2
      000000E6H   SFRSYM    DATA     BYTE      CMPCR1
      000000DEH   SFRSYM    DATA     BYTE      ADCCFG
      000000B8H   SFRSYM    DATA     BYTE      IP
      0000008FH   SFRSYM    DATA     BYTE      INTCLKO
      000000EEH   SFRSYM    DATA     BYTE      IP3H
      000000B6H   SFRSYM    DATA     BYTE      IP2H
      000000A8H   SFRSYM    DATA     BYTE      IE
      000000BBH   SFRSYM    DATA     BYTE      P_SW3
      000000BAH   SFRSYM    DATA     BYTE      P_SW2
      000000A2H   SFRSYM    DATA     BYTE      P_SW1
      000000CEH   SFRSYM    DATA     BYTE      SPCTL
      000000F8H   SFRSYM    DATA     BYTE      P7
      000000E8H   SFRSYM    DATA     BYTE      P6
      000000C8H   SFRSYM    DATA     BYTE      P5
      000000C0H   SFRSYM    DATA     BYTE      P4
      000000B0H   SFRSYM    DATA     BYTE      P3
      000000A0H   SFRSYM    DATA     BYTE      P2
      00000090H   SFRSYM    DATA     BYTE      P1
      00000080H   SFRSYM    DATA     BYTE      P0

      ---         MODULE    ---      ---       system
      00FF000EH   PUBLIC    CODE     ---       GetHightCounter
      00FF2493H   PUBLIC    CODE     ---       GetCounter
      00FF237FH   PUBLIC    CODE     ---       Timer0_Init
      00FF251DH   PUBLIC    CODE     ---       Timer3_Init
      00FF252CH   PUBLIC    CODE     ---       Timer4_Init
      00FF1FA1H   PUBLIC    CODE     ---       Timer0_Isr
      00FF2467H   PUBLIC    CODE     ---       Timer3_Isr
      00FF247DH   PUBLIC    CODE     ---       Timer4_Isr
      00FF22C3H   PUBLIC    CODE     ---       SysInit
      0000061CH   PUBLIC    EDATA    BYTE      Pluse3PortCnt
      0000061DH   PUBLIC    EDATA    BYTE      Pluse4PortCnt
      0000061EH   PUBLIC    EDATA    BYTE      LowOverFlowFlag3
      0000061FH   PUBLIC    EDATA    BYTE      LowOverFlowFlag4
      00000620H   PUBLIC    EDATA    WORD      Timer0Cnt
      00000622H   PUBLIC    EDATA    DWORD     Pluse3Cnt
      00000626H   PUBLIC    EDATA    DWORD     Pluse4Cnt
L251 LINKER/LOCATER V4.66.93.0                                                        05/23/2023  13:55:03  PAGE 20


      000000D0H   SFRSYM    DATA     BYTE      PSW
      0000009DH   SFRSYM    DATA     BYTE      IRCBAND
      00000097H   SFRSYM    DATA     BYTE      AUXR2
      000000EFH   SFRSYM    DATA     BYTE      AUXINTIF
      000000FDH   SFRSYM    DATA     BYTE      S4CON
      000000ACH   SFRSYM    DATA     BYTE      S3CON
      0000009AH   SFRSYM    DATA     BYTE      S2CON
      000000B7H   SFRSYM    DATA     BYTE      IPH
      000000CDH   SFRSYM    DATA     BYTE      SPSTAT
      000000DDH   SFRSYM    DATA     BYTE      T4T3M
      000000C1H   SFRSYM    DATA     BYTE      WDT_CONTR
      00000088H.6 SFRSYM    DATA     BIT       TR1
      00000088H.4 SFRSYM    DATA     BIT       TR0
      000000B8H.1 SFRSYM    DATA     BIT       PT0
      000000D3H   SFRSYM    DATA     BYTE      T4L
      000000D5H   SFRSYM    DATA     BYTE      T3L
      0000008BH   SFRSYM    DATA     BYTE      TL1
      0000008AH   SFRSYM    DATA     BYTE      TL0
      000000D2H   SFRSYM    DATA     BYTE      T4H
      000000D4H   SFRSYM    DATA     BYTE      T3H
      0000008DH   SFRSYM    DATA     BYTE      TH1
      0000008CH   SFRSYM    DATA     BYTE      TH0
      000000DFH   SFRSYM    DATA     BYTE      IP3
      000000F4H   SFRSYM    DATA     BYTE      USBCON
      00000088H.7 SFRSYM    DATA     BIT       TF1
      000000B5H   SFRSYM    DATA     BYTE      IP2
      000000FFH   SFRSYM    DATA     BYTE      RSTCFG
      00000088H.5 SFRSYM    DATA     BIT       TF0
      000000A8H.3 SFRSYM    DATA     BIT       ET1
      000000A8H.1 SFRSYM    DATA     BIT       ET0
      000000C7H   SFRSYM    DATA     BYTE      IAP_CONTR
      000000F9H   SFRSYM    DATA     BYTE      LINICR
      0000008EH   SFRSYM    DATA     BYTE      AUXR
      000000AFH   SFRSYM    DATA     BYTE      IE2
      00000088H   SFRSYM    DATA     BYTE      TCON
      00000089H   SFRSYM    DATA     BYTE      TMOD
      00000098H   SFRSYM    DATA     BYTE      SCON
      000000F1H   SFRSYM    DATA     BYTE      CANICR
      00000087H   SFRSYM    DATA     BYTE      PCON
      000000BCH   SFRSYM    DATA     BYTE      ADC_CONTR
      000000E7H   SFRSYM    DATA     BYTE      CMPCR2
      000000E6H   SFRSYM    DATA     BYTE      CMPCR1
      000000B7H.1 SFRSYM    DATA     BIT       PT0H
      000000DEH   SFRSYM    DATA     BYTE      ADCCFG
      000000B8H   SFRSYM    DATA     BYTE      IP
      0000008FH   SFRSYM    DATA     BYTE      INTCLKO
      000000EEH   SFRSYM    DATA     BYTE      IP3H
      000000B6H   SFRSYM    DATA     BYTE      IP2H
      000000A8H   SFRSYM    DATA     BYTE      IE
      000000BBH   SFRSYM    DATA     BYTE      P_SW3
      000000BAH   SFRSYM    DATA     BYTE      P_SW2
      000000A2H   SFRSYM    DATA     BYTE      P_SW1
      000000CEH   SFRSYM    DATA     BYTE      SPCTL
      000000F8H   SFRSYM    DATA     BYTE      P7
      000000E8H   SFRSYM    DATA     BYTE      P6
      000000C8H   SFRSYM    DATA     BYTE      P5
      000000C0H   SFRSYM    DATA     BYTE      P4
      000000B0H   SFRSYM    DATA     BYTE      P3
      000000A0H   SFRSYM    DATA     BYTE      P2
      00000090H   SFRSYM    DATA     BYTE      P1
      00000080H   SFRSYM    DATA     BYTE      P0

      ---         MODULE    ---      ---       uart
      00FF2067H   PUBLIC    CODE     ---       uartble_send
      00FF24B8H   PUBLIC    CODE     ---       ClearBleBuf
L251 LINKER/LOCATER V4.66.93.0                                                        05/23/2023  13:55:03  PAGE 21


      00FF1BC7H   PUBLIC    CODE     ---       UART1_ISR
      00FF1DE8H   PUBLIC    CODE     ---       UART3_ISR
      00FF1FE4H   PUBLIC    CODE     ---       Uart1_Init
      00FF21CCH   PUBLIC    CODE     ---       Uart3_Init
      00FF1F5BH   PUBLIC    CODE     ---       uart485_send
      00FF24CAH   PUBLIC    CODE     ---       ClearRs485Buf
      00000020H.0 PUBLIC    BIT      BIT       B_TX1_Busy
      00000020H.1 PUBLIC    BIT      BIT       B_TX3_Busy
      00000021H   PUBLIC    EDATA    ---       RX1_Buffer
      000000E9H   PUBLIC    EDATA    ---       RX3_Buffer
      000001B1H   PUBLIC    EDATA    WORD      Rx1_Timer
      000001B3H   PUBLIC    EDATA    WORD      Rx3_Timer
      000001B5H   PUBLIC    EDATA    BYTE      RX1_Cnt
      000001B6H   PUBLIC    EDATA    BYTE      RX3_Cnt
      000001B7H   PUBLIC    EDATA    BYTE      TX1_Cnt
      000001B8H   PUBLIC    EDATA    BYTE      TX3_Cnt
      000000D0H   SFRSYM    DATA     BYTE      PSW
      0000009DH   SFRSYM    DATA     BYTE      IRCBAND
      00000097H   SFRSYM    DATA     BYTE      AUXR2
      000000ACH.4 SFRSYM    DATA     BIT       S3REN
      000000B7H.4 SFRSYM    DATA     BIT       PSH
      000000EFH   SFRSYM    DATA     BYTE      AUXINTIF
      000000FDH   SFRSYM    DATA     BYTE      S4CON
      000000ACH   SFRSYM    DATA     BYTE      S3CON
      0000009AH   SFRSYM    DATA     BYTE      S2CON
      00000098H.4 SFRSYM    DATA     BIT       REN
      000000ADH   SFRSYM    DATA     BYTE      S3BUF
      000000B7H   SFRSYM    DATA     BYTE      IPH
      000000CDH   SFRSYM    DATA     BYTE      SPSTAT
      000000DDH   SFRSYM    DATA     BYTE      T4T3M
      000000C1H   SFRSYM    DATA     BYTE      WDT_CONTR
      00000088H.6 SFRSYM    DATA     BIT       TR1
      000000D7H   SFRSYM    DATA     BYTE      T2L
      0000008BH   SFRSYM    DATA     BYTE      TL1
      000000D6H   SFRSYM    DATA     BYTE      T2H
      0000008DH   SFRSYM    DATA     BYTE      TH1
      000000DFH   SFRSYM    DATA     BYTE      IP3
      000000F4H   SFRSYM    DATA     BYTE      USBCON
      000000AFH.3 SFRSYM    DATA     BIT       ES3
      000000B5H   SFRSYM    DATA     BYTE      IP2
      000000FFH   SFRSYM    DATA     BYTE      RSTCFG
      000000A8H.3 SFRSYM    DATA     BIT       ET1
      000000C7H   SFRSYM    DATA     BYTE      IAP_CONTR
      000000F9H   SFRSYM    DATA     BYTE      LINICR
      0000008EH   SFRSYM    DATA     BYTE      AUXR
      000000AFH   SFRSYM    DATA     BYTE      IE2
      000000BAH.1 SFRSYM    DATA     BIT       S3_S
      00000088H   SFRSYM    DATA     BYTE      TCON
      00000089H   SFRSYM    DATA     BYTE      TMOD
      00000098H   SFRSYM    DATA     BYTE      SCON
      000000F1H   SFRSYM    DATA     BYTE      CANICR
      00000087H   SFRSYM    DATA     BYTE      PCON
      00000099H   SFRSYM    DATA     BYTE      SBUF
      000000BCH   SFRSYM    DATA     BYTE      ADC_CONTR
      000000E7H   SFRSYM    DATA     BYTE      CMPCR2
      000000E6H   SFRSYM    DATA     BYTE      CMPCR1
      000000ACH.1 SFRSYM    DATA     BIT       S3TI
      000000B8H.4 SFRSYM    DATA     BIT       PS
      000000ACH.0 SFRSYM    DATA     BIT       S3RI
      00000098H.1 SFRSYM    DATA     BIT       TI
      00000098H.0 SFRSYM    DATA     BIT       RI
      000000DEH   SFRSYM    DATA     BYTE      ADCCFG
      000000B8H   SFRSYM    DATA     BYTE      IP
      000000A8H.4 SFRSYM    DATA     BIT       ES
      0000008FH   SFRSYM    DATA     BYTE      INTCLKO
L251 LINKER/LOCATER V4.66.93.0                                                        05/23/2023  13:55:03  PAGE 22


      000000EEH   SFRSYM    DATA     BYTE      IP3H
      000000B6H   SFRSYM    DATA     BYTE      IP2H
      000000A8H   SFRSYM    DATA     BYTE      IE
      000000BBH   SFRSYM    DATA     BYTE      P_SW3
      000000BAH   SFRSYM    DATA     BYTE      P_SW2
      000000A2H   SFRSYM    DATA     BYTE      P_SW1
      000000CEH   SFRSYM    DATA     BYTE      SPCTL
      000000F8H   SFRSYM    DATA     BYTE      P7
      000000E8H   SFRSYM    DATA     BYTE      P6
      000000C8H   SFRSYM    DATA     BYTE      P5
      000000C0H   SFRSYM    DATA     BYTE      P4
      000000B0H   SFRSYM    DATA     BYTE      P3
      000000A0H   SFRSYM    DATA     BYTE      P2
      00000090H   SFRSYM    DATA     BYTE      P1
      00000080H   SFRSYM    DATA     BYTE      P0

      ---         MODULE    ---      ---       BatVoltage
      00FF175FH   PUBLIC    CODE     ---       DeviceGetBatAlarm
      00FF23D5H   PUBLIC    CODE     ---       Adc_Init
      00FF1698H   PUBLIC    CODE     ---       DeviceGetBatVal
      00FF10C0H   PUBLIC    CODE     ---       arrange
      000000D0H   SFRSYM    DATA     BYTE      PSW
      0000009DH   SFRSYM    DATA     BYTE      IRCBAND
      00000097H   SFRSYM    DATA     BYTE      AUXR2
      000000EFH   SFRSYM    DATA     BYTE      AUXINTIF
      000000FDH   SFRSYM    DATA     BYTE      S4CON
      000000ACH   SFRSYM    DATA     BYTE      S3CON
      0000009AH   SFRSYM    DATA     BYTE      S2CON
      000000B7H   SFRSYM    DATA     BYTE      IPH
      000000CDH   SFRSYM    DATA     BYTE      SPSTAT
      000000BEH   SFRSYM    DATA     BYTE      ADC_RESL
      000000DDH   SFRSYM    DATA     BYTE      T4T3M
      000000C1H   SFRSYM    DATA     BYTE      WDT_CONTR
      000000DFH   SFRSYM    DATA     BYTE      IP3
      000000F4H   SFRSYM    DATA     BYTE      USBCON
      000000B5H   SFRSYM    DATA     BYTE      IP2
      000000FFH   SFRSYM    DATA     BYTE      RSTCFG
      000000BCH.5 SFRSYM    DATA     BIT       ADC_FLAG
      000000C7H   SFRSYM    DATA     BYTE      IAP_CONTR
      000000F9H   SFRSYM    DATA     BYTE      LINICR
      0000008EH   SFRSYM    DATA     BYTE      AUXR
      000000AFH   SFRSYM    DATA     BYTE      IE2
      000000BCH.6 SFRSYM    DATA     BIT       ADC_START
      00000088H   SFRSYM    DATA     BYTE      TCON
      00000089H   SFRSYM    DATA     BYTE      TMOD
      00000098H   SFRSYM    DATA     BYTE      SCON
      000000F1H   SFRSYM    DATA     BYTE      CANICR
      00000087H   SFRSYM    DATA     BYTE      PCON
      000000BCH   SFRSYM    DATA     BYTE      ADC_CONTR
      000000E7H   SFRSYM    DATA     BYTE      CMPCR2
      000000E6H   SFRSYM    DATA     BYTE      CMPCR1
      000000DEH   SFRSYM    DATA     BYTE      ADCCFG
      000000B8H   SFRSYM    DATA     BYTE      IP
      0000008FH   SFRSYM    DATA     BYTE      INTCLKO
      000000EEH   SFRSYM    DATA     BYTE      IP3H
      000000B6H   SFRSYM    DATA     BYTE      IP2H
      000000BDH   SFRSYM    DATA     BYTE      ADC_RES
      000000A8H   SFRSYM    DATA     BYTE      IE
      000000BBH   SFRSYM    DATA     BYTE      P_SW3
      000000BAH   SFRSYM    DATA     BYTE      P_SW2
      000000A2H   SFRSYM    DATA     BYTE      P_SW1
      000000CEH   SFRSYM    DATA     BYTE      SPCTL
      000000F8H   SFRSYM    DATA     BYTE      P7
      000000E8H   SFRSYM    DATA     BYTE      P6
      000000C8H   SFRSYM    DATA     BYTE      P5
L251 LINKER/LOCATER V4.66.93.0                                                        05/23/2023  13:55:03  PAGE 23


      000000C0H   SFRSYM    DATA     BYTE      P4
      000000B0H   SFRSYM    DATA     BYTE      P3
      000000A0H   SFRSYM    DATA     BYTE      P2
      00000090H   SFRSYM    DATA     BYTE      P1
      00000080H   SFRSYM    DATA     BYTE      P0

      ---         MODULE    ---      ---       CalcCPS
      00FF1C88H   PUBLIC    CODE     ---       CalcLow
      00FF1CE3H   PUBLIC    CODE     ---       CalcHigh
      0000068FH   PUBLIC    EDATA    DWORD     lCP100MS
      00000693H   PUBLIC    EDATA    DWORD     lCPS
      000005D2H   PUBLIC    EDATA    BYTE      ?CalcLow?BYTE
      000005EEH   PUBLIC    EDATA    BYTE      ?CalcHigh?BYTE
      000000D0H   SFRSYM    DATA     BYTE      PSW
      0000009DH   SFRSYM    DATA     BYTE      IRCBAND
      00000097H   SFRSYM    DATA     BYTE      AUXR2
      000000EFH   SFRSYM    DATA     BYTE      AUXINTIF
      000000FDH   SFRSYM    DATA     BYTE      S4CON
      000000ACH   SFRSYM    DATA     BYTE      S3CON
      0000009AH   SFRSYM    DATA     BYTE      S2CON
      000000B7H   SFRSYM    DATA     BYTE      IPH
      000000CDH   SFRSYM    DATA     BYTE      SPSTAT
      000000DDH   SFRSYM    DATA     BYTE      T4T3M
      000000C1H   SFRSYM    DATA     BYTE      WDT_CONTR
      000000DFH   SFRSYM    DATA     BYTE      IP3
      000000F4H   SFRSYM    DATA     BYTE      USBCON
      000000B5H   SFRSYM    DATA     BYTE      IP2
      000000FFH   SFRSYM    DATA     BYTE      RSTCFG
      000000C7H   SFRSYM    DATA     BYTE      IAP_CONTR
      000000F9H   SFRSYM    DATA     BYTE      LINICR
      0000008EH   SFRSYM    DATA     BYTE      AUXR
      000000AFH   SFRSYM    DATA     BYTE      IE2
      00000088H   SFRSYM    DATA     BYTE      TCON
      00000089H   SFRSYM    DATA     BYTE      TMOD
      00000098H   SFRSYM    DATA     BYTE      SCON
      000000F1H   SFRSYM    DATA     BYTE      CANICR
      00000087H   SFRSYM    DATA     BYTE      PCON
      000000BCH   SFRSYM    DATA     BYTE      ADC_CONTR
      000000E7H   SFRSYM    DATA     BYTE      CMPCR2
      000000E6H   SFRSYM    DATA     BYTE      CMPCR1
      000000DEH   SFRSYM    DATA     BYTE      ADCCFG
      000000B8H   SFRSYM    DATA     BYTE      IP
      0000008FH   SFRSYM    DATA     BYTE      INTCLKO
      000000EEH   SFRSYM    DATA     BYTE      IP3H
      000000B6H   SFRSYM    DATA     BYTE      IP2H
      000000A8H   SFRSYM    DATA     BYTE      IE
      000000BBH   SFRSYM    DATA     BYTE      P_SW3
      000000BAH   SFRSYM    DATA     BYTE      P_SW2
      000000A2H   SFRSYM    DATA     BYTE      P_SW1
      000000CEH   SFRSYM    DATA     BYTE      SPCTL
      000000F8H   SFRSYM    DATA     BYTE      P7
      000000E8H   SFRSYM    DATA     BYTE      P6
      000000C8H   SFRSYM    DATA     BYTE      P5
      000000C0H   SFRSYM    DATA     BYTE      P4
      000000B0H   SFRSYM    DATA     BYTE      P3
      000000A0H   SFRSYM    DATA     BYTE      P2
      00000090H   SFRSYM    DATA     BYTE      P1
      00000080H   SFRSYM    DATA     BYTE      P0

      ---         MODULE    ---      ---       DoseRate
      00FF11D4H   PUBLIC    CODE     ---       CpsFilter
      00FF1D3EH   PUBLIC    CODE     ---       InitArr
      00FF1ACCH   PUBLIC    CODE     ---       PushCps
      00FF239DH   PUBLIC    CODE     ---       ClearCounter
      00FF0003H   PUBLIC    CODE     ---       AddCounter
L251 LINKER/LOCATER V4.66.93.0                                                        05/23/2023  13:55:03  PAGE 24


      00FF12E6H   PUBLIC    CODE     ---       CounterPH
      000001BFH   PUBLIC    EDATA    ---       CpsArr
      000000D0H   SFRSYM    DATA     BYTE      PSW
      0000009DH   SFRSYM    DATA     BYTE      IRCBAND
      00000097H   SFRSYM    DATA     BYTE      AUXR2
      000000EFH   SFRSYM    DATA     BYTE      AUXINTIF
      000000FDH   SFRSYM    DATA     BYTE      S4CON
      000000ACH   SFRSYM    DATA     BYTE      S3CON
      0000009AH   SFRSYM    DATA     BYTE      S2CON
      000000B7H   SFRSYM    DATA     BYTE      IPH
      000000CDH   SFRSYM    DATA     BYTE      SPSTAT
      000000DDH   SFRSYM    DATA     BYTE      T4T3M
      000000C1H   SFRSYM    DATA     BYTE      WDT_CONTR
      000000DFH   SFRSYM    DATA     BYTE      IP3
      000000F4H   SFRSYM    DATA     BYTE      USBCON
      000000B5H   SFRSYM    DATA     BYTE      IP2
      000000FFH   SFRSYM    DATA     BYTE      RSTCFG
      000000C7H   SFRSYM    DATA     BYTE      IAP_CONTR
      000000F9H   SFRSYM    DATA     BYTE      LINICR
      0000008EH   SFRSYM    DATA     BYTE      AUXR
      000000AFH   SFRSYM    DATA     BYTE      IE2
      00000088H   SFRSYM    DATA     BYTE      TCON
      00000089H   SFRSYM    DATA     BYTE      TMOD
      00000098H   SFRSYM    DATA     BYTE      SCON
      000000F1H   SFRSYM    DATA     BYTE      CANICR
      00000087H   SFRSYM    DATA     BYTE      PCON
      000000BCH   SFRSYM    DATA     BYTE      ADC_CONTR
      000000E7H   SFRSYM    DATA     BYTE      CMPCR2
      000000E6H   SFRSYM    DATA     BYTE      CMPCR1
      000000DEH   SFRSYM    DATA     BYTE      ADCCFG
      000000B8H   SFRSYM    DATA     BYTE      IP
      0000008FH   SFRSYM    DATA     BYTE      INTCLKO
      000000EEH   SFRSYM    DATA     BYTE      IP3H
      000000B6H   SFRSYM    DATA     BYTE      IP2H
      000000A8H   SFRSYM    DATA     BYTE      IE
      000000BBH   SFRSYM    DATA     BYTE      P_SW3
      000000BAH   SFRSYM    DATA     BYTE      P_SW2
      000000A2H   SFRSYM    DATA     BYTE      P_SW1
      000000CEH   SFRSYM    DATA     BYTE      SPCTL
      000000F8H   SFRSYM    DATA     BYTE      P7
      000000E8H   SFRSYM    DATA     BYTE      P6
      000000C8H   SFRSYM    DATA     BYTE      P5
      000000C0H   SFRSYM    DATA     BYTE      P4
      000000B0H   SFRSYM    DATA     BYTE      P3
      000000A0H   SFRSYM    DATA     BYTE      P2
      00000090H   SFRSYM    DATA     BYTE      P1
      00000080H   SFRSYM    DATA     BYTE      P0

      ---         MODULE    ---      ---       CRC
      00FF00A6H   PUBLIC    CODE     ---       CRC16
      00FF2568H   PUBLIC    HCONST   ---       auchCRCHi
      00FF2668H   PUBLIC    HCONST   ---       auchCRCLo
      000000D0H   SFRSYM    DATA     BYTE      PSW
      0000009DH   SFRSYM    DATA     BYTE      IRCBAND
      00000097H   SFRSYM    DATA     BYTE      AUXR2
      000000EFH   SFRSYM    DATA     BYTE      AUXINTIF
      000000FDH   SFRSYM    DATA     BYTE      S4CON
      000000ACH   SFRSYM    DATA     BYTE      S3CON
      0000009AH   SFRSYM    DATA     BYTE      S2CON
      000000B7H   SFRSYM    DATA     BYTE      IPH
      000000CDH   SFRSYM    DATA     BYTE      SPSTAT
      000000DDH   SFRSYM    DATA     BYTE      T4T3M
      000000C1H   SFRSYM    DATA     BYTE      WDT_CONTR
      000000DFH   SFRSYM    DATA     BYTE      IP3
      000000F4H   SFRSYM    DATA     BYTE      USBCON
L251 LINKER/LOCATER V4.66.93.0                                                        05/23/2023  13:55:03  PAGE 25


      000000B5H   SFRSYM    DATA     BYTE      IP2
      000000FFH   SFRSYM    DATA     BYTE      RSTCFG
      000000C7H   SFRSYM    DATA     BYTE      IAP_CONTR
      000000F9H   SFRSYM    DATA     BYTE      LINICR
      0000008EH   SFRSYM    DATA     BYTE      AUXR
      000000AFH   SFRSYM    DATA     BYTE      IE2
      00000088H   SFRSYM    DATA     BYTE      TCON
      00000089H   SFRSYM    DATA     BYTE      TMOD
      00000098H   SFRSYM    DATA     BYTE      SCON
      000000F1H   SFRSYM    DATA     BYTE      CANICR
      00000087H   SFRSYM    DATA     BYTE      PCON
      000000BCH   SFRSYM    DATA     BYTE      ADC_CONTR
      000000E7H   SFRSYM    DATA     BYTE      CMPCR2
      000000E6H   SFRSYM    DATA     BYTE      CMPCR1
      000000DEH   SFRSYM    DATA     BYTE      ADCCFG
      000000B8H   SFRSYM    DATA     BYTE      IP
      0000008FH   SFRSYM    DATA     BYTE      INTCLKO
      000000EEH   SFRSYM    DATA     BYTE      IP3H
      000000B6H   SFRSYM    DATA     BYTE      IP2H
      000000A8H   SFRSYM    DATA     BYTE      IE
      000000BBH   SFRSYM    DATA     BYTE      P_SW3
      000000BAH   SFRSYM    DATA     BYTE      P_SW2
      000000A2H   SFRSYM    DATA     BYTE      P_SW1
      000000CEH   SFRSYM    DATA     BYTE      SPCTL
      000000F8H   SFRSYM    DATA     BYTE      P7
      000000E8H   SFRSYM    DATA     BYTE      P6
      000000C8H   SFRSYM    DATA     BYTE      P5
      000000C0H   SFRSYM    DATA     BYTE      P4
      000000B0H   SFRSYM    DATA     BYTE      P3
      000000A0H   SFRSYM    DATA     BYTE      P2
      00000090H   SFRSYM    DATA     BYTE      P1
      00000080H   SFRSYM    DATA     BYTE      P0

      ---         MODULE    ---      ---       Queue

      ---         MODULE    ---      ---       main
      00FF235CH   PUBLIC    CODE     ---       Rs485Hnd
      00FF1825H   PUBLIC    CODE     ---       InitParam
      00FF24DCH   PUBLIC    CODE     ---       Error
      00FF15CAH   PUBLIC    CODE     ---       TimerTask
      00FF2235H   PUBLIC    CODE     ---       DevSleep
      00FF18E9H   PUBLIC    CODE     ---       main
      00FF253BH   PUBLIC    CODE     ---       DevInit
      00FF1A37H   PUBLIC    CODE     ---       BtInit
      00FF215BH   PUBLIC    CODE     ---       IoInit
      00FF1F14H   PUBLIC    CODE     ---       delay_ms
      00FF240AH   PUBLIC    CODE     ---       delay_us
      00FF255CH   PUBLIC    CODE     ---       sysSleep
      000002C9H   PUBLIC    EDATA    ---       SysRunState
      00000094H   SFRSYM    DATA     BYTE      P0M0
      000000D0H   SFRSYM    DATA     BYTE      PSW
      000000BAH.7 SFRSYM    DATA     BIT       EAXFR
      0000009DH   SFRSYM    DATA     BYTE      IRCBAND
      00000097H   SFRSYM    DATA     BYTE      AUXR2
      000000EFH   SFRSYM    DATA     BYTE      AUXINTIF
      000000FDH   SFRSYM    DATA     BYTE      S4CON
      000000ACH   SFRSYM    DATA     BYTE      S3CON
      0000009AH   SFRSYM    DATA     BYTE      S2CON
      000000B7H   SFRSYM    DATA     BYTE      IPH
      000000CDH   SFRSYM    DATA     BYTE      SPSTAT
      000000DDH   SFRSYM    DATA     BYTE      T4T3M
      000000DDH.7 SFRSYM    DATA     BIT       T4R
      000000DDH.3 SFRSYM    DATA     BIT       T3R
      000000C1H   SFRSYM    DATA     BYTE      WDT_CONTR
      00000088H.4 SFRSYM    DATA     BIT       TR0
L251 LINKER/LOCATER V4.66.93.0                                                        05/23/2023  13:55:03  PAGE 26


      000000D3H   SFRSYM    DATA     BYTE      T4L
      000000D5H   SFRSYM    DATA     BYTE      T3L
      000000E9H   SFRSYM    DATA     BYTE      WTST
      000000D2H   SFRSYM    DATA     BYTE      T4H
      000000D4H   SFRSYM    DATA     BYTE      T3H
      000000DFH   SFRSYM    DATA     BYTE      IP3
      000000F4H   SFRSYM    DATA     BYTE      USBCON
      000000B5H   SFRSYM    DATA     BYTE      IP2
      000000FFH   SFRSYM    DATA     BYTE      RSTCFG
      000000C7H   SFRSYM    DATA     BYTE      IAP_CONTR
      000000F9H   SFRSYM    DATA     BYTE      LINICR
      0000008EH   SFRSYM    DATA     BYTE      AUXR
      000000AFH   SFRSYM    DATA     BYTE      IE2
      00000088H   SFRSYM    DATA     BYTE      TCON
      00000089H   SFRSYM    DATA     BYTE      TMOD
      00000098H   SFRSYM    DATA     BYTE      SCON
      000000F1H   SFRSYM    DATA     BYTE      CANICR
      00000087H   SFRSYM    DATA     BYTE      PCON
      000000BCH   SFRSYM    DATA     BYTE      ADC_CONTR
      000000E7H   SFRSYM    DATA     BYTE      CMPCR2
      000000E6H   SFRSYM    DATA     BYTE      CMPCR1
      000000DEH   SFRSYM    DATA     BYTE      ADCCFG
      000000B8H   SFRSYM    DATA     BYTE      IP
      0000008FH   SFRSYM    DATA     BYTE      INTCLKO
      000000EEH   SFRSYM    DATA     BYTE      IP3H
      000000B6H   SFRSYM    DATA     BYTE      IP2H
      000000A8H   SFRSYM    DATA     BYTE      IE
      000000BBH   SFRSYM    DATA     BYTE      P_SW3
      000000BAH   SFRSYM    DATA     BYTE      P_SW2
      000000A2H   SFRSYM    DATA     BYTE      P_SW1
      000000CEH   SFRSYM    DATA     BYTE      SPCTL
      000000F8H   SFRSYM    DATA     BYTE      P7
      000000A8H.7 SFRSYM    DATA     BIT       EA
      000000E1H   SFRSYM    DATA     BYTE      P7M1
      000000E8H   SFRSYM    DATA     BYTE      P6
      000000C8H   SFRSYM    DATA     BYTE      P5
      000000CBH   SFRSYM    DATA     BYTE      P6M1
      000000E2H   SFRSYM    DATA     BYTE      P7M0
      000000C0H   SFRSYM    DATA     BYTE      P4
      000000C9H   SFRSYM    DATA     BYTE      P5M1
      000000CCH   SFRSYM    DATA     BYTE      P6M0
      000000B0H   SFRSYM    DATA     BYTE      P3
      000000B3H   SFRSYM    DATA     BYTE      P4M1
      000000CAH   SFRSYM    DATA     BYTE      P5M0
      000000A0H   SFRSYM    DATA     BYTE      P2
      000000B1H   SFRSYM    DATA     BYTE      P3M1
      000000B4H   SFRSYM    DATA     BYTE      P4M0
      00000090H   SFRSYM    DATA     BYTE      P1
      00000095H   SFRSYM    DATA     BYTE      P2M1
      000000B2H   SFRSYM    DATA     BYTE      P3M0
      00000080H   SFRSYM    DATA     BYTE      P0
      00000091H   SFRSYM    DATA     BYTE      P1M1
      00000096H   SFRSYM    DATA     BYTE      P2M0
      00000092H   SFRSYM    DATA     BYTE      P1M0
      00000093H   SFRSYM    DATA     BYTE      P0M1

      ---         MODULE    ---      ---       ?C?FPADD
      00FF013CH   PUBLIC    CODE     ---       ?C?FPADD
      00FF0139H   PUBLIC    CODE     ---       ?C?FPSUB

      ---         MODULE    ---      ---       ?C?FPMUL
      00FF01F4H   PUBLIC    CODE     ---       ?C?FPMUL

      ---         MODULE    ---      ---       ?C?FPDIV
      00FF0294H   PUBLIC    CODE     ---       ?C?FPDIV
L251 LINKER/LOCATER V4.66.93.0                                                        05/23/2023  13:55:03  PAGE 27



      ---         MODULE    ---      ---       ?C?FPCMP
      00FF0317H   PUBLIC    CODE     ---       ?C?FPCMP
      00FF0315H   PUBLIC    CODE     ---       ?C?FPCMP3

      ---         MODULE    ---      ---       ?C?FCAST
      00FF0365H   PUBLIC    CODE     NEAR LAB  ?C?FCASTC
      00FF0360H   PUBLIC    CODE     NEAR LAB  ?C?FCASTI
      00FF035BH   PUBLIC    CODE     NEAR LAB  ?C?FCASTL

      ---         MODULE    ---      ---       ?C?CASTF
      00FF0398H   PUBLIC    CODE     NEAR LAB  ?C?CASTF

      ---         MODULE    ---      ---       EXP?_
      00FF040EH   PUBLIC    CODE     ---       EXP?_

      ---         MODULE    ---      ---       SQRT?_
      00FF0471H   PUBLIC    CODE     ---       SQRT?_

      ---         MODULE    ---      ---       ?C?FPGETOPN
      00FF0501H   PUBLIC    CODE     ---       ?C?FPGETOPN2
      00FF053EH   PUBLIC    CODE     ---       ?C?FPNANRESULT
      00FF0546H   PUBLIC    CODE     ---       ?C?FPOVERFLOW
      00FF051AH   PUBLIC    CODE     ---       ?C?FPRESULT
      00FF0530H   PUBLIC    CODE     ---       ?C?FPRESULT2
      00FF0543H   PUBLIC    CODE     ---       ?C?FPUNDERFLOW

      ---         MODULE    ---      ---       ?C?FPSERIES
      00FF0552H   PUBLIC    CODE     ---       ?C?FP2SERIES
      00FF055BH   PUBLIC    CODE     ---       ?C?FPSERIES

      ---         MODULE    ---      ---       ?C_START
      00FF0000H   PUBLIC    CODE     ---       ?C?STARTUP
      00FF0000H   PUBLIC    CODE     ---       ?C_STARTUP

      ---         MODULE    ---      ---       ?C?INITEDATA
      00FF20BAH   PUBLIC    CODE     ---       ?C?INITEDATA

      ---         MODULE    ---      ---       ?C?ULDIV
      00FF0581H   PUBLIC    CODE     NEAR LAB  ?C?ULDIV
      00FF057FH   PUBLIC    CODE     NEAR LAB  ?C?ULIDIV

      ---         MODULE    ---      ---       ?C?BMOVENP
      00FF05D4H   PUBLIC    CODE     ---       ?C?BMOVENP
      00FF05D2H   PUBLIC    CODE     ---       ?C?BMOVENP8

      ---         MODULE    ---      ---       memcpy
      00FF2337H   PUBLIC    CODE     ---       memcpy?_

      ---         MODULE    ---      ---       memset
      00FF23F0H   PUBLIC    CODE     ---       memset?_

      ---         MODULE    ---      ---       ?C?INITEDATA_END
      00FF291EH   PUBLIC    HCONST   WORD      ?C?INITEDATA_END

Program Size: data=8.2 edata+hdata=2027 xdata=0 const=1054 code=9569
L251 RUN COMPLETE.  0 WARNING(S),  0 ERROR(S)
